ARM GAS  C:\Users\NGUYEN~1\AppData\Local\Temp\ccVP94za.s 			page 1


   1              		.syntax unified
   2              		.cpu cortex-m0
   3              		.fpu softvfp
   4              		.eabi_attribute 20, 1
   5              		.eabi_attribute 21, 1
   6              		.eabi_attribute 23, 3
   7              		.eabi_attribute 24, 1
   8              		.eabi_attribute 25, 1
   9              		.eabi_attribute 26, 1
  10              		.eabi_attribute 30, 1
  11              		.eabi_attribute 34, 0
  12              		.eabi_attribute 18, 4
  13              		.thumb
  14              		.syntax unified
  15              		.file	"adc.c"
  16              		.text
  17              	.Ltext0:
  18              		.cfi_sections	.debug_frame
  19              		.global	__aeabi_idiv
  20              		.section	.text.adc_Init,"ax",%progbits
  21              		.align	2
  22              		.global	adc_Init
  23              		.code	16
  24              		.thumb_func
  25              		.type	adc_Init, %function
  26              	adc_Init:
  27              	.LFB2:
  28              		.file 1 "Generated_Source\\PSoC4\\adc.c"
   1:Generated_Source\PSoC4/adc.c **** /*******************************************************************************
   2:Generated_Source\PSoC4/adc.c **** * File Name: adc.c
   3:Generated_Source\PSoC4/adc.c **** * Version 2.50
   4:Generated_Source\PSoC4/adc.c **** *
   5:Generated_Source\PSoC4/adc.c **** * Description:
   6:Generated_Source\PSoC4/adc.c **** *  This file provides the source code to the API for the Sequencing Successive
   7:Generated_Source\PSoC4/adc.c **** *  Approximation ADC Component Component.
   8:Generated_Source\PSoC4/adc.c **** *
   9:Generated_Source\PSoC4/adc.c **** * Note:
  10:Generated_Source\PSoC4/adc.c **** *
  11:Generated_Source\PSoC4/adc.c **** ********************************************************************************
  12:Generated_Source\PSoC4/adc.c **** * Copyright 2008-2017, Cypress Semiconductor Corporation.  All rights reserved.
  13:Generated_Source\PSoC4/adc.c **** * You may use this file only in accordance with the license, terms, conditions,
  14:Generated_Source\PSoC4/adc.c **** * disclaimers, and limitations in the end user license agreement accompanying
  15:Generated_Source\PSoC4/adc.c **** * the software package with which this file was provided.
  16:Generated_Source\PSoC4/adc.c **** *******************************************************************************/
  17:Generated_Source\PSoC4/adc.c **** 
  18:Generated_Source\PSoC4/adc.c **** #include "adc.h"
  19:Generated_Source\PSoC4/adc.c **** 
  20:Generated_Source\PSoC4/adc.c **** 
  21:Generated_Source\PSoC4/adc.c **** /***************************************
  22:Generated_Source\PSoC4/adc.c **** * Global data allocation
  23:Generated_Source\PSoC4/adc.c **** ***************************************/
  24:Generated_Source\PSoC4/adc.c **** uint8 adc_initVar = 0u;
  25:Generated_Source\PSoC4/adc.c **** volatile int16 adc_offset[adc_TOTAL_CHANNELS_NUM];
  26:Generated_Source\PSoC4/adc.c **** volatile int32 adc_countsPer10Volt[adc_TOTAL_CHANNELS_NUM];   /* Gain compensation */
  27:Generated_Source\PSoC4/adc.c **** 
  28:Generated_Source\PSoC4/adc.c **** 
  29:Generated_Source\PSoC4/adc.c **** /***************************************
ARM GAS  C:\Users\NGUYEN~1\AppData\Local\Temp\ccVP94za.s 			page 2


  30:Generated_Source\PSoC4/adc.c **** * Local data allocation
  31:Generated_Source\PSoC4/adc.c **** ***************************************/
  32:Generated_Source\PSoC4/adc.c **** /* Channels configuration generated by customiser */
  33:Generated_Source\PSoC4/adc.c **** static const uint32 CYCODE adc_channelsConfig[] = { 0x00000200u, 0x00000200u, 0x00000200u, 0x000002
  34:Generated_Source\PSoC4/adc.c ****  0x00000200u };
  35:Generated_Source\PSoC4/adc.c **** 
  36:Generated_Source\PSoC4/adc.c **** 
  37:Generated_Source\PSoC4/adc.c **** /*******************************************************************************
  38:Generated_Source\PSoC4/adc.c **** * Function Name: adc_Start
  39:Generated_Source\PSoC4/adc.c **** ********************************************************************************
  40:Generated_Source\PSoC4/adc.c **** *
  41:Generated_Source\PSoC4/adc.c **** * Summary:
  42:Generated_Source\PSoC4/adc.c **** *  Performs all required initialization for this component
  43:Generated_Source\PSoC4/adc.c **** *  and enables the power. The power will be set to the appropriate
  44:Generated_Source\PSoC4/adc.c **** *  power based on the clock frequency.
  45:Generated_Source\PSoC4/adc.c **** *
  46:Generated_Source\PSoC4/adc.c **** * Parameters:
  47:Generated_Source\PSoC4/adc.c **** *  None.
  48:Generated_Source\PSoC4/adc.c **** *
  49:Generated_Source\PSoC4/adc.c **** * Return:
  50:Generated_Source\PSoC4/adc.c **** *  None.
  51:Generated_Source\PSoC4/adc.c **** *
  52:Generated_Source\PSoC4/adc.c **** * Global variables:
  53:Generated_Source\PSoC4/adc.c **** *  The adc_initVar variable is used to indicate when/if initial
  54:Generated_Source\PSoC4/adc.c **** *  configuration of this component has happened. The variable is initialized to
  55:Generated_Source\PSoC4/adc.c **** *  zero and set to 1 the first time ADC_Start() is called. This allows for
  56:Generated_Source\PSoC4/adc.c **** *  component Re-Start without re-initialization in all subsequent calls to the
  57:Generated_Source\PSoC4/adc.c **** *  adc_Start() routine.
  58:Generated_Source\PSoC4/adc.c **** *  If re-initialization of the component is required the variable should be set
  59:Generated_Source\PSoC4/adc.c **** *  to zero before call of adc_Start() routine, or the user may call
  60:Generated_Source\PSoC4/adc.c **** *  adc_Init() and adc_Enable() as done in the
  61:Generated_Source\PSoC4/adc.c **** *  adc_Start() routine.
  62:Generated_Source\PSoC4/adc.c **** *
  63:Generated_Source\PSoC4/adc.c **** *******************************************************************************/
  64:Generated_Source\PSoC4/adc.c **** void adc_Start(void)
  65:Generated_Source\PSoC4/adc.c **** {
  66:Generated_Source\PSoC4/adc.c ****     /* If not Initialized then initialize all required hardware and software */
  67:Generated_Source\PSoC4/adc.c ****     if(adc_initVar == 0u)
  68:Generated_Source\PSoC4/adc.c ****     {
  69:Generated_Source\PSoC4/adc.c ****         adc_Init();
  70:Generated_Source\PSoC4/adc.c ****         adc_initVar = 1u;
  71:Generated_Source\PSoC4/adc.c ****     }
  72:Generated_Source\PSoC4/adc.c ****     adc_Enable();
  73:Generated_Source\PSoC4/adc.c **** }
  74:Generated_Source\PSoC4/adc.c **** 
  75:Generated_Source\PSoC4/adc.c **** 
  76:Generated_Source\PSoC4/adc.c **** /*******************************************************************************
  77:Generated_Source\PSoC4/adc.c **** * Function Name: adc_Init
  78:Generated_Source\PSoC4/adc.c **** ********************************************************************************
  79:Generated_Source\PSoC4/adc.c **** *
  80:Generated_Source\PSoC4/adc.c **** * Summary:
  81:Generated_Source\PSoC4/adc.c **** *  Initialize component's parameters to the parameters set by user in the
  82:Generated_Source\PSoC4/adc.c **** *  customizer of the component placed onto schematic. Usually called in
  83:Generated_Source\PSoC4/adc.c **** *  adc_Start().
  84:Generated_Source\PSoC4/adc.c **** *
  85:Generated_Source\PSoC4/adc.c **** * Parameters:
  86:Generated_Source\PSoC4/adc.c **** *  None.
ARM GAS  C:\Users\NGUYEN~1\AppData\Local\Temp\ccVP94za.s 			page 3


  87:Generated_Source\PSoC4/adc.c **** *
  88:Generated_Source\PSoC4/adc.c **** * Return:
  89:Generated_Source\PSoC4/adc.c **** *  None.
  90:Generated_Source\PSoC4/adc.c **** *
  91:Generated_Source\PSoC4/adc.c **** * Global variables:
  92:Generated_Source\PSoC4/adc.c **** *  The adc_offset variable is initialized.
  93:Generated_Source\PSoC4/adc.c **** *
  94:Generated_Source\PSoC4/adc.c **** *******************************************************************************/
  95:Generated_Source\PSoC4/adc.c **** void adc_Init(void)
  96:Generated_Source\PSoC4/adc.c **** {
  29              		.loc 1 96 0
  30              		.cfi_startproc
  31              		@ args = 0, pretend = 0, frame = 0
  32              		@ frame_needed = 0, uses_anonymous_args = 0
  33 0000 10B5     		push	{r4, lr}
  34              		.cfi_def_cfa_offset 8
  35              		.cfi_offset 4, -8
  36              		.cfi_offset 14, -4
  97:Generated_Source\PSoC4/adc.c ****     uint32 chNum;
  98:Generated_Source\PSoC4/adc.c ****     uint32 tmpRegVal;
  99:Generated_Source\PSoC4/adc.c ****     int32 counts;
 100:Generated_Source\PSoC4/adc.c **** 
 101:Generated_Source\PSoC4/adc.c ****     #if(adc_TOTAL_CHANNELS_NUM > 1u)
 102:Generated_Source\PSoC4/adc.c ****         static const uint8 CYCODE adc_InputsPlacement[] =
 103:Generated_Source\PSoC4/adc.c ****         {
 104:Generated_Source\PSoC4/adc.c ****             (uint8)(adc_cy_psoc4_sarmux_8__CH_0_PORT << 4u) |
 105:Generated_Source\PSoC4/adc.c ****             (uint8)adc_cy_psoc4_sarmux_8__CH_0_PIN
 106:Generated_Source\PSoC4/adc.c ****             ,(uint8)(adc_cy_psoc4_sarmux_8__CH_1_PORT << 4u) |
 107:Generated_Source\PSoC4/adc.c ****              (uint8)adc_cy_psoc4_sarmux_8__CH_1_PIN
 108:Generated_Source\PSoC4/adc.c ****             #if(adc_TOTAL_CHANNELS_NUM > 2u)
 109:Generated_Source\PSoC4/adc.c ****                 ,(uint8)(adc_cy_psoc4_sarmux_8__CH_2_PORT << 4u) |
 110:Generated_Source\PSoC4/adc.c ****                  (uint8)adc_cy_psoc4_sarmux_8__CH_2_PIN
 111:Generated_Source\PSoC4/adc.c ****             #endif /* End adc_TOTAL_CHANNELS_NUM > 2u */
 112:Generated_Source\PSoC4/adc.c ****             #if(adc_TOTAL_CHANNELS_NUM > 3u)
 113:Generated_Source\PSoC4/adc.c ****                 ,(uint8)(adc_cy_psoc4_sarmux_8__CH_3_PORT << 4u) |
 114:Generated_Source\PSoC4/adc.c ****                  (uint8)adc_cy_psoc4_sarmux_8__CH_3_PIN
 115:Generated_Source\PSoC4/adc.c ****             #endif /* End adc_TOTAL_CHANNELS_NUM > 3u */
 116:Generated_Source\PSoC4/adc.c ****             #if(adc_TOTAL_CHANNELS_NUM > 4u)
 117:Generated_Source\PSoC4/adc.c ****                 ,(uint8)(adc_cy_psoc4_sarmux_8__CH_4_PORT << 4u) |
 118:Generated_Source\PSoC4/adc.c ****                  (uint8)adc_cy_psoc4_sarmux_8__CH_4_PIN
 119:Generated_Source\PSoC4/adc.c ****             #endif /* End adc_TOTAL_CHANNELS_NUM > 4u */
 120:Generated_Source\PSoC4/adc.c ****             #if(adc_TOTAL_CHANNELS_NUM > 5u)
 121:Generated_Source\PSoC4/adc.c ****                 ,(uint8)(adc_cy_psoc4_sarmux_8__CH_5_PORT << 4u) |
 122:Generated_Source\PSoC4/adc.c ****                  (uint8)adc_cy_psoc4_sarmux_8__CH_5_PIN
 123:Generated_Source\PSoC4/adc.c ****             #endif /* End adc_TOTAL_CHANNELS_NUM > 5u */
 124:Generated_Source\PSoC4/adc.c ****             #if(adc_TOTAL_CHANNELS_NUM > 6u)
 125:Generated_Source\PSoC4/adc.c ****                 ,(uint8)(adc_cy_psoc4_sarmux_8__CH_6_PORT << 4u) |
 126:Generated_Source\PSoC4/adc.c ****                  (uint8)adc_cy_psoc4_sarmux_8__CH_6_PIN
 127:Generated_Source\PSoC4/adc.c ****             #endif /* End adc_TOTAL_CHANNELS_NUM > 6u */
 128:Generated_Source\PSoC4/adc.c ****             #if(adc_TOTAL_CHANNELS_NUM > 7u)
 129:Generated_Source\PSoC4/adc.c ****                 ,(uint8)(adc_cy_psoc4_sarmux_8__CH_7_PORT << 4u) |
 130:Generated_Source\PSoC4/adc.c ****                  (uint8)adc_cy_psoc4_sarmux_8__CH_7_PIN
 131:Generated_Source\PSoC4/adc.c ****             #endif /* End adc_TOTAL_CHANNELS_NUM > 7u */
 132:Generated_Source\PSoC4/adc.c ****             #if(adc_TOTAL_CHANNELS_NUM > 8u)
 133:Generated_Source\PSoC4/adc.c ****                 ,(uint8)(adc_cy_psoc4_sarmux_8__CH_8_PORT << 4u) |
 134:Generated_Source\PSoC4/adc.c ****                  (uint8)adc_cy_psoc4_sarmux_8__CH_8_PIN
 135:Generated_Source\PSoC4/adc.c ****             #endif /* End adc_TOTAL_CHANNELS_NUM > 8u */
ARM GAS  C:\Users\NGUYEN~1\AppData\Local\Temp\ccVP94za.s 			page 4


 136:Generated_Source\PSoC4/adc.c ****             #if(adc_TOTAL_CHANNELS_NUM > 9u)
 137:Generated_Source\PSoC4/adc.c ****                 ,(uint8)(adc_cy_psoc4_sarmux_8__CH_9_PORT << 4u) |
 138:Generated_Source\PSoC4/adc.c ****                  (uint8)adc_cy_psoc4_sarmux_8__CH_9_PIN
 139:Generated_Source\PSoC4/adc.c ****             #endif /* End adc_TOTAL_CHANNELS_NUM > 9u */
 140:Generated_Source\PSoC4/adc.c ****             #if(adc_TOTAL_CHANNELS_NUM > 10u)
 141:Generated_Source\PSoC4/adc.c ****                 ,(uint8)(adc_cy_psoc4_sarmux_8__CH_10_PORT << 4u) |
 142:Generated_Source\PSoC4/adc.c ****                  (uint8)adc_cy_psoc4_sarmux_8__CH_10_PIN
 143:Generated_Source\PSoC4/adc.c ****             #endif /* End adc_TOTAL_CHANNELS_NUM > 10u */
 144:Generated_Source\PSoC4/adc.c ****             #if(adc_TOTAL_CHANNELS_NUM > 11u)
 145:Generated_Source\PSoC4/adc.c ****                 ,(uint8)(adc_cy_psoc4_sarmux_8__CH_11_PORT << 4u) |
 146:Generated_Source\PSoC4/adc.c ****                  (uint8)adc_cy_psoc4_sarmux_8__CH_11_PIN
 147:Generated_Source\PSoC4/adc.c ****             #endif /* End adc_TOTAL_CHANNELS_NUM > 11u */
 148:Generated_Source\PSoC4/adc.c ****             #if(adc_TOTAL_CHANNELS_NUM > 12u)
 149:Generated_Source\PSoC4/adc.c ****                 ,(uint8)(adc_cy_psoc4_sarmux_8__CH_12_PORT << 4u) |
 150:Generated_Source\PSoC4/adc.c ****                  (uint8)adc_cy_psoc4_sarmux_8__CH_12_PIN
 151:Generated_Source\PSoC4/adc.c ****             #endif /* End adc_TOTAL_CHANNELS_NUM > 12u */
 152:Generated_Source\PSoC4/adc.c ****             #if(adc_TOTAL_CHANNELS_NUM > 13u)
 153:Generated_Source\PSoC4/adc.c ****                 ,(uint8)(adc_cy_psoc4_sarmux_8__CH_13_PORT << 4u) |
 154:Generated_Source\PSoC4/adc.c ****                  (uint8)adc_cy_psoc4_sarmux_8__CH_13_PIN
 155:Generated_Source\PSoC4/adc.c ****             #endif /* End adc_TOTAL_CHANNELS_NUM > 13u */
 156:Generated_Source\PSoC4/adc.c ****             #if(adc_TOTAL_CHANNELS_NUM > 14u)
 157:Generated_Source\PSoC4/adc.c ****                 ,(uint8)(adc_cy_psoc4_sarmux_8__CH_14_PORT << 4u) |
 158:Generated_Source\PSoC4/adc.c ****                  (uint8)adc_cy_psoc4_sarmux_8__CH_14_PIN
 159:Generated_Source\PSoC4/adc.c ****             #endif /* End adc_TOTAL_CHANNELS_NUM > 14u */
 160:Generated_Source\PSoC4/adc.c ****             #if(adc_TOTAL_CHANNELS_NUM > 15u)
 161:Generated_Source\PSoC4/adc.c ****                 ,(uint8)(adc_cy_psoc4_sarmux_8__CH_15_PORT << 4u) |
 162:Generated_Source\PSoC4/adc.c ****                  (uint8)adc_cy_psoc4_sarmux_8__CH_15_PIN
 163:Generated_Source\PSoC4/adc.c ****             #endif /* End adc_TOTAL_CHANNELS_NUM > 15u */
 164:Generated_Source\PSoC4/adc.c ****             #if(adc_TOTAL_CHANNELS_NUM > 16u)
 165:Generated_Source\PSoC4/adc.c ****                 ,(uint8)(adc_cy_psoc4_sarmux_8__CH_16_PORT << 4u) |
 166:Generated_Source\PSoC4/adc.c ****                  (uint8)adc_cy_psoc4_sarmux_8__CH_16_PIN
 167:Generated_Source\PSoC4/adc.c ****             #endif /* End adc_TOTAL_CHANNELS_NUM > 16u */
 168:Generated_Source\PSoC4/adc.c ****         };
 169:Generated_Source\PSoC4/adc.c ****     #endif /* End adc_TOTAL_CHANNELS_NUM > 1u */
 170:Generated_Source\PSoC4/adc.c **** 
 171:Generated_Source\PSoC4/adc.c ****     #if(adc_IRQ_REMOVE == 0u)
 172:Generated_Source\PSoC4/adc.c ****         /* Start and set interrupt vector */
 173:Generated_Source\PSoC4/adc.c ****         CyIntSetPriority(adc_INTC_NUMBER, adc_INTC_PRIOR_NUMBER);
  37              		.loc 1 173 0
  38 0002 0321     		movs	r1, #3
  39 0004 1020     		movs	r0, #16
  40 0006 FFF7FEFF 		bl	CyIntSetPriority
  41              	.LVL0:
 174:Generated_Source\PSoC4/adc.c ****         (void)CyIntSetVector(adc_INTC_NUMBER, &adc_ISR);
  42              		.loc 1 174 0
  43 000a 4349     		ldr	r1, .L12
  44 000c 1020     		movs	r0, #16
  45 000e FFF7FEFF 		bl	CyIntSetVector
  46              	.LVL1:
 175:Generated_Source\PSoC4/adc.c ****     #endif   /* End adc_IRQ_REMOVE */
 176:Generated_Source\PSoC4/adc.c **** 
 177:Generated_Source\PSoC4/adc.c ****     /* Init SAR and MUX registers */
 178:Generated_Source\PSoC4/adc.c ****     adc_SAR_CHAN_EN_REG = adc_DEFAULT_EN_CHANNELS;
  47              		.loc 1 178 0
  48 0012 3F22     		movs	r2, #63
  49 0014 414B     		ldr	r3, .L12+4
  50 0016 1A60     		str	r2, [r3]
ARM GAS  C:\Users\NGUYEN~1\AppData\Local\Temp\ccVP94za.s 			page 5


 179:Generated_Source\PSoC4/adc.c ****     adc_SAR_CTRL_REG |= adc_DEFAULT_CTRL_REG_CFG | 
 180:Generated_Source\PSoC4/adc.c ****         /* Enable the SAR internal pump when global pump is enabled */
 181:Generated_Source\PSoC4/adc.c ****         (((adc_PUMP_CTRL_REG & adc_PUMP_CTRL_ENABLED) != 0u) ? 
  51              		.loc 1 181 0
  52 0018 414B     		ldr	r3, .L12+8
  53 001a 1B68     		ldr	r3, [r3]
 179:Generated_Source\PSoC4/adc.c ****     adc_SAR_CTRL_REG |= adc_DEFAULT_CTRL_REG_CFG | 
  54              		.loc 1 179 0
  55 001c 002B     		cmp	r3, #0
  56 001e 01DA     		bge	.L10
  57 0020 4049     		ldr	r1, .L12+12
  58 0022 00E0     		b	.L2
  59              	.L10:
  60 0024 4049     		ldr	r1, .L12+16
  61              	.L2:
 179:Generated_Source\PSoC4/adc.c ****     adc_SAR_CTRL_REG |= adc_DEFAULT_CTRL_REG_CFG | 
  62              		.loc 1 179 0 is_stmt 0 discriminator 4
  63 0026 414A     		ldr	r2, .L12+20
  64 0028 1368     		ldr	r3, [r2]
  65 002a 0B43     		orrs	r3, r1
  66 002c 1360     		str	r3, [r2]
 182:Generated_Source\PSoC4/adc.c ****         adc_BOOSTPUMP_EN : 0u);
 183:Generated_Source\PSoC4/adc.c ****     adc_SAR_SAMPLE_CTRL_REG = adc_DEFAULT_SAMPLE_CTRL_REG_CFG;
  67              		.loc 1 183 0 is_stmt 1 discriminator 4
  68 002e 404A     		ldr	r2, .L12+24
  69 0030 404B     		ldr	r3, .L12+28
  70 0032 1A60     		str	r2, [r3]
 184:Generated_Source\PSoC4/adc.c ****     adc_SAR_RANGE_THRES_REG = adc_DEFAULT_RANGE_THRES_REG_CFG;
  71              		.loc 1 184 0 discriminator 4
  72 0034 404A     		ldr	r2, .L12+32
  73 0036 414B     		ldr	r3, .L12+36
  74 0038 1A60     		str	r2, [r3]
 185:Generated_Source\PSoC4/adc.c ****     adc_SAR_RANGE_COND_REG  = adc_COMPARE_MODE;
  75              		.loc 1 185 0 discriminator 4
  76 003a 0023     		movs	r3, #0
  77 003c 404A     		ldr	r2, .L12+40
  78 003e 1360     		str	r3, [r2]
 186:Generated_Source\PSoC4/adc.c ****     adc_SAR_SAMPLE_TIME01_REG = adc_DEFAULT_SAMPLE_TIME01_REG_CFG;
  79              		.loc 1 186 0 discriminator 4
  80 0040 404A     		ldr	r2, .L12+44
  81 0042 4149     		ldr	r1, .L12+48
  82 0044 0A60     		str	r2, [r1]
 187:Generated_Source\PSoC4/adc.c ****     adc_SAR_SAMPLE_TIME23_REG = adc_DEFAULT_SAMPLE_TIME23_REG_CFG;
  83              		.loc 1 187 0 discriminator 4
  84 0046 4149     		ldr	r1, .L12+52
  85 0048 0A60     		str	r2, [r1]
 188:Generated_Source\PSoC4/adc.c ****     
 189:Generated_Source\PSoC4/adc.c ****     /* Connect Vm to VSSA when even one channel is single-ended or multiple channels configured */
 190:Generated_Source\PSoC4/adc.c ****     #if(adc_DEFAULT_MUX_SWITCH0 != 0u)
 191:Generated_Source\PSoC4/adc.c ****         adc_MUX_SWITCH0_REG |= adc_DEFAULT_MUX_SWITCH0;
  86              		.loc 1 191 0 discriminator 4
  87 004a 414A     		ldr	r2, .L12+56
  88 004c 1168     		ldr	r1, [r2]
  89 004e 8020     		movs	r0, #128
  90 0050 4002     		lsls	r0, r0, #9
  91 0052 0143     		orrs	r1, r0
  92 0054 1160     		str	r1, [r2]
ARM GAS  C:\Users\NGUYEN~1\AppData\Local\Temp\ccVP94za.s 			page 6


 192:Generated_Source\PSoC4/adc.c ****         /* Set MUX_HW_CTRL_VSSA in MUX_SWITCH_HW_CTRL when multiple channels enabled */
 193:Generated_Source\PSoC4/adc.c ****         #if(adc_TOTAL_CHANNELS_NUM > 1u)
 194:Generated_Source\PSoC4/adc.c ****             adc_MUX_SWITCH_HW_CTRL_REG |= adc_DEFAULT_MUX_SWITCH0;
  93              		.loc 1 194 0 discriminator 4
  94 0056 3F49     		ldr	r1, .L12+60
  95 0058 0A68     		ldr	r2, [r1]
  96 005a 0243     		orrs	r2, r0
  97 005c 0A60     		str	r2, [r1]
 195:Generated_Source\PSoC4/adc.c ****         #endif /* adc_TOTAL_CHANNELS_NUM > 1u */
 196:Generated_Source\PSoC4/adc.c ****     #endif /*adc_CHANNELS_MODE !=0 */
 197:Generated_Source\PSoC4/adc.c **** 
 198:Generated_Source\PSoC4/adc.c ****     adc_SAR_SATURATE_INTR_MASK_REG = 0u;
  98              		.loc 1 198 0 discriminator 4
  99 005e 3E4A     		ldr	r2, .L12+64
 100 0060 1360     		str	r3, [r2]
 199:Generated_Source\PSoC4/adc.c ****     adc_SAR_RANGE_INTR_MASK_REG = 0u;
 101              		.loc 1 199 0 discriminator 4
 102 0062 3E4A     		ldr	r2, .L12+68
 103 0064 1360     		str	r3, [r2]
 200:Generated_Source\PSoC4/adc.c ****     adc_SAR_INTR_MASK_REG = adc_SAR_INTR_MASK;
 104              		.loc 1 200 0 discriminator 4
 105 0066 0122     		movs	r2, #1
 106 0068 3D4B     		ldr	r3, .L12+72
 107 006a 1A60     		str	r2, [r3]
 201:Generated_Source\PSoC4/adc.c **** 
 202:Generated_Source\PSoC4/adc.c ****     #if(adc_CY_SAR_IP_VER == adc_CY_SAR_IP_VER0)
 203:Generated_Source\PSoC4/adc.c ****         adc_ANA_TRIM_REG = adc_TRIM_COEF;
 204:Generated_Source\PSoC4/adc.c ****     #endif /* (adc_CY_SAR_IP_VER == adc_CY_SAR_IP_VER0) */
 205:Generated_Source\PSoC4/adc.c **** 
 206:Generated_Source\PSoC4/adc.c ****     /* Read and modify default configuration based on characterization */
 207:Generated_Source\PSoC4/adc.c ****     tmpRegVal = adc_SAR_DFT_CTRL_REG;
 108              		.loc 1 207 0 discriminator 4
 109 006c 3D4A     		ldr	r2, .L12+76
 110 006e 1168     		ldr	r1, [r2]
 111              	.LVL2:
 112 0070 3D4B     		ldr	r3, .L12+80
 113 0072 0B40     		ands	r3, r1
 208:Generated_Source\PSoC4/adc.c ****     tmpRegVal &= (uint32)~adc_DCEN;
 209:Generated_Source\PSoC4/adc.c ****     
 210:Generated_Source\PSoC4/adc.c ****     #if(adc_CY_SAR_IP_VER == adc_CY_SAR_IP_VER0)
 211:Generated_Source\PSoC4/adc.c ****         #if(adc_NOMINAL_CLOCK_FREQ > (adc_MAX_FREQUENCY / 2))
 212:Generated_Source\PSoC4/adc.c ****             tmpRegVal |= adc_SEL_CSEL_DFT_CHAR;
 213:Generated_Source\PSoC4/adc.c ****         #else  /* clock speed < 9 Mhz */
 214:Generated_Source\PSoC4/adc.c ****             tmpRegVal |= adc_DLY_INC;
 215:Generated_Source\PSoC4/adc.c ****         #endif /* clock speed > 9 Mhz */
 216:Generated_Source\PSoC4/adc.c ****     #else
 217:Generated_Source\PSoC4/adc.c ****         #if ((adc_DEFAULT_VREF_SEL == adc__INTERNAL1024) || \
 218:Generated_Source\PSoC4/adc.c ****              (adc_DEFAULT_VREF_SEL == adc__INTERNALVREF))
 219:Generated_Source\PSoC4/adc.c ****             tmpRegVal |= adc_DLY_INC;
 220:Generated_Source\PSoC4/adc.c ****         #else
 221:Generated_Source\PSoC4/adc.c ****             tmpRegVal |= adc_DCEN;
 222:Generated_Source\PSoC4/adc.c ****             tmpRegVal &= (uint32)~adc_DLY_INC;
 114              		.loc 1 222 0 discriminator 4
 115 0074 8021     		movs	r1, #128
 116              	.LVL3:
 117 0076 8905     		lsls	r1, r1, #22
 118 0078 0B43     		orrs	r3, r1
ARM GAS  C:\Users\NGUYEN~1\AppData\Local\Temp\ccVP94za.s 			page 7


 119              	.LVL4:
 223:Generated_Source\PSoC4/adc.c ****         #endif /* ((adc_DEFAULT_VREF_SEL == adc__INTERNAL1024) || \
 224:Generated_Source\PSoC4/adc.c ****                    (adc_DEFAULT_VREF_SEL == adc__INTERNALVREF)) */
 225:Generated_Source\PSoC4/adc.c ****     #endif /* (adc_CY_SAR_IP_VER == adc_CY_SAR_IP_VER0) */
 226:Generated_Source\PSoC4/adc.c ****     
 227:Generated_Source\PSoC4/adc.c ****     adc_SAR_DFT_CTRL_REG = tmpRegVal;
 120              		.loc 1 227 0 discriminator 4
 121 007a 1360     		str	r3, [r2]
 228:Generated_Source\PSoC4/adc.c **** 
 229:Generated_Source\PSoC4/adc.c ****     #if(adc_MAX_RESOLUTION != adc_RESOLUTION_12)
 230:Generated_Source\PSoC4/adc.c ****         adc_WOUNDING_REG = adc_ALT_WOUNDING;
 122              		.loc 1 230 0 discriminator 4
 123 007c 0222     		movs	r2, #2
 124 007e 3B4B     		ldr	r3, .L12+84
 125              	.LVL5:
 126 0080 1A60     		str	r2, [r3]
 127              	.LVL6:
 231:Generated_Source\PSoC4/adc.c ****     #endif /* adc_MAX_RESOLUTION != adc_RESOLUTION_12 */
 232:Generated_Source\PSoC4/adc.c **** 
 233:Generated_Source\PSoC4/adc.c ****     for(chNum = 0u; chNum < adc_TOTAL_CHANNELS_NUM; chNum++)
 128              		.loc 1 233 0 discriminator 4
 129 0082 0024     		movs	r4, #0
 130 0084 45E0     		b	.L3
 131              	.LVL7:
 132              	.L9:
 234:Generated_Source\PSoC4/adc.c ****     {
 235:Generated_Source\PSoC4/adc.c ****         tmpRegVal = (adc_channelsConfig[chNum] & adc_CHANNEL_CONFIG_MASK);
 133              		.loc 1 235 0
 134 0086 3A49     		ldr	r1, .L12+88
 135 0088 A200     		lsls	r2, r4, #2
 136 008a 5058     		ldr	r0, [r2, r1]
 137 008c DC23     		movs	r3, #220
 138 008e 9B01     		lsls	r3, r3, #6
 139 0090 0340     		ands	r3, r0
 140              	.LVL8:
 236:Generated_Source\PSoC4/adc.c ****         #if(adc_TOTAL_CHANNELS_NUM > 1u)
 237:Generated_Source\PSoC4/adc.c ****             tmpRegVal |= adc_InputsPlacement[chNum];
 141              		.loc 1 237 0
 142 0092 0919     		adds	r1, r1, r4
 143 0094 097E     		ldrb	r1, [r1, #24]
 144 0096 0B43     		orrs	r3, r1
 145              	.LVL9:
 238:Generated_Source\PSoC4/adc.c ****         #endif /* End adc_TOTAL_CHANNELS_NUM > 1u */
 239:Generated_Source\PSoC4/adc.c ****         
 240:Generated_Source\PSoC4/adc.c ****         
 241:Generated_Source\PSoC4/adc.c ****         /* When the part is limited to 10-bit then the SUB_RESOLUTION bit
 242:Generated_Source\PSoC4/adc.c ****         *  will be ignored and the RESOLUTION bit selects between 10-bit
 243:Generated_Source\PSoC4/adc.c ****         *  (0) and 8-bit (1) resolution.
 244:Generated_Source\PSoC4/adc.c ****         */
 245:Generated_Source\PSoC4/adc.c ****         #if((adc_MAX_RESOLUTION != adc_RESOLUTION_12) && \
 246:Generated_Source\PSoC4/adc.c ****             (adc_ALT_WOUNDING == adc_WOUNDING_10BIT))
 247:Generated_Source\PSoC4/adc.c ****             tmpRegVal &= (uint32)(~adc_ALT_RESOLUTION_ON);
 248:Generated_Source\PSoC4/adc.c ****         #endif /* adc_MAX_RESOLUTION != adc_RESOLUTION_12 */
 249:Generated_Source\PSoC4/adc.c **** 
 250:Generated_Source\PSoC4/adc.c ****         #if(adc_INJ_CHANNEL_ENABLED)
 251:Generated_Source\PSoC4/adc.c ****         if(chNum < adc_SEQUENCED_CHANNELS_NUM)
 252:Generated_Source\PSoC4/adc.c ****         #endif /* adc_INJ_CHANNEL_ENABLED */
ARM GAS  C:\Users\NGUYEN~1\AppData\Local\Temp\ccVP94za.s 			page 8


 253:Generated_Source\PSoC4/adc.c ****         {
 254:Generated_Source\PSoC4/adc.c ****             CY_SET_REG32((reg32 *)(adc_SAR_CHAN_CONFIG_IND + (uint32)(chNum << 2)), tmpRegVal);
 146              		.loc 1 254 0
 147 0098 3649     		ldr	r1, .L12+92
 148 009a 8C46     		mov	ip, r1
 149 009c 6244     		add	r2, r2, ip
 150 009e 1360     		str	r3, [r2]
 255:Generated_Source\PSoC4/adc.c **** 
 256:Generated_Source\PSoC4/adc.c ****             if((adc_channelsConfig[chNum] & adc_IS_SATURATE_EN_MASK) != 0u)
 151              		.loc 1 256 0
 152 00a0 C307     		lsls	r3, r0, #31
 153 00a2 07D5     		bpl	.L4
 154              	.LVL10:
 257:Generated_Source\PSoC4/adc.c ****             {
 258:Generated_Source\PSoC4/adc.c ****                 adc_SAR_SATURATE_INTR_MASK_REG |= (uint16)((uint16)1 << chNum);
 155              		.loc 1 258 0
 156 00a4 2C49     		ldr	r1, .L12+64
 157 00a6 0A68     		ldr	r2, [r1]
 158              	.LVL11:
 159 00a8 0123     		movs	r3, #1
 160 00aa A340     		lsls	r3, r3, r4
 161 00ac 1B04     		lsls	r3, r3, #16
 162 00ae 1B0C     		lsrs	r3, r3, #16
 163 00b0 1343     		orrs	r3, r2
 164 00b2 0B60     		str	r3, [r1]
 165              	.LVL12:
 166              	.L4:
 259:Generated_Source\PSoC4/adc.c ****             }
 260:Generated_Source\PSoC4/adc.c **** 
 261:Generated_Source\PSoC4/adc.c ****             if((adc_channelsConfig[chNum] & adc_IS_RANGE_CTRL_EN_MASK) != 0u)
 167              		.loc 1 261 0
 168 00b4 A300     		lsls	r3, r4, #2
 169 00b6 2E4A     		ldr	r2, .L12+88
 170              	.LVL13:
 171 00b8 9B58     		ldr	r3, [r3, r2]
 172 00ba 9B07     		lsls	r3, r3, #30
 173 00bc 07D5     		bpl	.L5
 262:Generated_Source\PSoC4/adc.c ****             {
 263:Generated_Source\PSoC4/adc.c ****                 adc_SAR_RANGE_INTR_MASK_REG |= (uint16)((uint16)1 << chNum);
 174              		.loc 1 263 0
 175 00be 2749     		ldr	r1, .L12+68
 176 00c0 0A68     		ldr	r2, [r1]
 177              	.LVL14:
 178 00c2 0123     		movs	r3, #1
 179 00c4 A340     		lsls	r3, r3, r4
 180 00c6 1B04     		lsls	r3, r3, #16
 181 00c8 1B0C     		lsrs	r3, r3, #16
 182 00ca 1343     		orrs	r3, r2
 183 00cc 0B60     		str	r3, [r1]
 184              	.L5:
 264:Generated_Source\PSoC4/adc.c ****             }
 265:Generated_Source\PSoC4/adc.c ****         }
 266:Generated_Source\PSoC4/adc.c ****         #if(adc_INJ_CHANNEL_ENABLED)
 267:Generated_Source\PSoC4/adc.c ****             else
 268:Generated_Source\PSoC4/adc.c ****             {
 269:Generated_Source\PSoC4/adc.c ****                 CY_SET_REG32(adc_SAR_INJ_CHAN_CONFIG_PTR, tmpRegVal | adc_INJ_TAILGATING);
 270:Generated_Source\PSoC4/adc.c **** 
ARM GAS  C:\Users\NGUYEN~1\AppData\Local\Temp\ccVP94za.s 			page 9


 271:Generated_Source\PSoC4/adc.c ****                 if((adc_channelsConfig[chNum] & adc_IS_SATURATE_EN_MASK) != 0u)
 272:Generated_Source\PSoC4/adc.c ****                 {
 273:Generated_Source\PSoC4/adc.c ****                     adc_SAR_INTR_MASK_REG |= adc_INJ_SATURATE_MASK;
 274:Generated_Source\PSoC4/adc.c ****                 }
 275:Generated_Source\PSoC4/adc.c **** 
 276:Generated_Source\PSoC4/adc.c ****                 if((adc_channelsConfig[chNum] & adc_IS_RANGE_CTRL_EN_MASK) != 0u)
 277:Generated_Source\PSoC4/adc.c ****                 {
 278:Generated_Source\PSoC4/adc.c ****                     adc_SAR_INTR_MASK_REG |= adc_INJ_RANGE_MASK;
 279:Generated_Source\PSoC4/adc.c ****                 }
 280:Generated_Source\PSoC4/adc.c ****             }
 281:Generated_Source\PSoC4/adc.c ****         #endif /* adc_INJ_CHANNEL_ENABLED */
 282:Generated_Source\PSoC4/adc.c **** 
 283:Generated_Source\PSoC4/adc.c ****         if((adc_channelsConfig[chNum] & adc_ALT_RESOLUTION_ON) != 0u)
 185              		.loc 1 283 0
 186 00ce A300     		lsls	r3, r4, #2
 187 00d0 274A     		ldr	r2, .L12+88
 188              	.LVL15:
 189 00d2 9B58     		ldr	r3, [r3, r2]
 190 00d4 9A05     		lsls	r2, r3, #22
 191 00d6 02D5     		bpl	.L11
 192              	.LVL16:
 284:Generated_Source\PSoC4/adc.c ****         {
 285:Generated_Source\PSoC4/adc.c ****                counts = (int32)adc_DEFAULT_MAX_WRK_ALT;
 193              		.loc 1 285 0
 194 00d8 8020     		movs	r0, #128
 195              	.LVL17:
 196 00da 4000     		lsls	r0, r0, #1
 197 00dc 01E0     		b	.L6
 198              	.LVL18:
 199              	.L11:
 286:Generated_Source\PSoC4/adc.c ****         }
 287:Generated_Source\PSoC4/adc.c ****         else
 288:Generated_Source\PSoC4/adc.c ****         {
 289:Generated_Source\PSoC4/adc.c ****                counts = (int32)adc_SAR_WRK_MAX_12BIT;
 200              		.loc 1 289 0
 201 00de 8020     		movs	r0, #128
 202              	.LVL19:
 203 00e0 4001     		lsls	r0, r0, #5
 204              	.L6:
 205              	.LVL20:
 290:Generated_Source\PSoC4/adc.c ****         }
 291:Generated_Source\PSoC4/adc.c **** 
 292:Generated_Source\PSoC4/adc.c ****         if((adc_channelsConfig[chNum] & adc_DIFFERENTIAL_EN) == 0u)
 206              		.loc 1 292 0
 207 00e2 DB05     		lsls	r3, r3, #23
 208 00e4 04D4     		bmi	.L7
 293:Generated_Source\PSoC4/adc.c ****         {
 294:Generated_Source\PSoC4/adc.c ****             #if((adc_DEFAULT_SE_RESULT_FORMAT_SEL == adc__FSIGNED) && \
 295:Generated_Source\PSoC4/adc.c ****                 (adc_DEFAULT_NEG_INPUT_SEL == adc__VREF))
 296:Generated_Source\PSoC4/adc.c ****                 /* Set offset to the minus half scale to convert results to unsigned format */
 297:Generated_Source\PSoC4/adc.c ****                 adc_offset[chNum] = (int16)(counts / -2);
 298:Generated_Source\PSoC4/adc.c ****             #else
 299:Generated_Source\PSoC4/adc.c ****                 adc_offset[chNum] = 0;
 209              		.loc 1 299 0
 210 00e6 6300     		lsls	r3, r4, #1
 211 00e8 0021     		movs	r1, #0
 212 00ea 234A     		ldr	r2, .L12+96
ARM GAS  C:\Users\NGUYEN~1\AppData\Local\Temp\ccVP94za.s 			page 10


 213 00ec 9952     		strh	r1, [r3, r2]
 214 00ee 03E0     		b	.L8
 215              	.L7:
 300:Generated_Source\PSoC4/adc.c ****             #endif /* end DEFAULT_SE_RESULT_FORMAT_SEL == adc__FSIGNED */
 301:Generated_Source\PSoC4/adc.c ****         }
 302:Generated_Source\PSoC4/adc.c ****         else    /* Differential channel */
 303:Generated_Source\PSoC4/adc.c ****         {
 304:Generated_Source\PSoC4/adc.c ****             #if(adc_DEFAULT_DIFF_RESULT_FORMAT_SEL == adc__FUNSIGNED)
 305:Generated_Source\PSoC4/adc.c ****                 /* Set offset to the half scale to convert results to signed format */
 306:Generated_Source\PSoC4/adc.c ****                 adc_offset[chNum] = (int16)(counts / 2);
 307:Generated_Source\PSoC4/adc.c ****             #else
 308:Generated_Source\PSoC4/adc.c ****                 adc_offset[chNum] = 0;
 216              		.loc 1 308 0
 217 00f0 6300     		lsls	r3, r4, #1
 218 00f2 0021     		movs	r1, #0
 219 00f4 204A     		ldr	r2, .L12+96
 220 00f6 9952     		strh	r1, [r3, r2]
 221              	.L8:
 309:Generated_Source\PSoC4/adc.c ****             #endif /* end adc_DEFAULT_DIFF_RESULT_FORMAT_SEL == adc__FUNSIGNED */
 310:Generated_Source\PSoC4/adc.c ****         }
 311:Generated_Source\PSoC4/adc.c ****         /* Calculate gain in counts per 10 volts with rounding */
 312:Generated_Source\PSoC4/adc.c ****         adc_countsPer10Volt[chNum] = (int16)(((counts * adc_10MV_COUNTS) +
 222              		.loc 1 312 0 discriminator 2
 223 00f8 204B     		ldr	r3, .L12+100
 224 00fa 5843     		muls	r0, r3
 225              	.LVL21:
 226 00fc 204B     		ldr	r3, .L12+104
 227 00fe 9C46     		mov	ip, r3
 228 0100 6044     		add	r0, r0, ip
 313:Generated_Source\PSoC4/adc.c ****                             adc_DEFAULT_VREF_MV_VALUE) / (adc_DEFAULT_VREF_MV_VALUE * 2));
 229              		.loc 1 313 0 discriminator 2
 230 0102 2049     		ldr	r1, .L12+108
 231 0104 FFF7FEFF 		bl	__aeabi_idiv
 232              	.LVL22:
 312:Generated_Source\PSoC4/adc.c ****                             adc_DEFAULT_VREF_MV_VALUE) / (adc_DEFAULT_VREF_MV_VALUE * 2));
 233              		.loc 1 312 0 discriminator 2
 234 0108 00B2     		sxth	r0, r0
 235 010a A200     		lsls	r2, r4, #2
 236 010c 1E4B     		ldr	r3, .L12+112
 237 010e D050     		str	r0, [r2, r3]
 233:Generated_Source\PSoC4/adc.c ****     {
 238              		.loc 1 233 0 discriminator 2
 239 0110 0134     		adds	r4, r4, #1
 240              	.LVL23:
 241              	.L3:
 233:Generated_Source\PSoC4/adc.c ****     {
 242              		.loc 1 233 0 is_stmt 0 discriminator 1
 243 0112 052C     		cmp	r4, #5
 244 0114 B7D9     		bls	.L9
 314:Generated_Source\PSoC4/adc.c ****     }
 315:Generated_Source\PSoC4/adc.c **** }
 245              		.loc 1 315 0 is_stmt 1
 246              		@ sp needed
 247              	.LVL24:
 248 0116 10BD     		pop	{r4, pc}
 249              	.L13:
 250              		.align	2
ARM GAS  C:\Users\NGUYEN~1\AppData\Local\Temp\ccVP94za.s 			page 11


 251              	.L12:
 252 0118 00000000 		.word	adc_ISR
 253 011c 20003A40 		.word	1077542944
 254 0120 80033A40 		.word	1077543808
 255 0124 70201010 		.word	269492336
 256 0128 70200010 		.word	268443760
 257 012c 00003A40 		.word	1077542912
 258 0130 8C000080 		.word	-2147483508
 259 0134 04003A40 		.word	1077542916
 260 0138 0000FF07 		.word	134152192
 261 013c 18003A40 		.word	1077542936
 262 0140 1C003A40 		.word	1077542940
 263 0144 04000400 		.word	262148
 264 0148 10003A40 		.word	1077542928
 265 014c 14003A40 		.word	1077542932
 266 0150 00033A40 		.word	1077543680
 267 0154 40033A40 		.word	1077543744
 268 0158 28023A40 		.word	1077543464
 269 015c 38023A40 		.word	1077543480
 270 0160 18023A40 		.word	1077543448
 271 0164 30003A40 		.word	1077542960
 272 0168 FEFFFFDF 		.word	-536870914
 273 016c 040F3A40 		.word	1077546756
 274 0170 00000000 		.word	.LANCHOR0
 275 0174 80003A40 		.word	1077543040
 276 0178 00000000 		.word	adc_offset
 277 017c 10270000 		.word	10000
 278 0180 E40C0000 		.word	3300
 279 0184 C8190000 		.word	6600
 280 0188 00000000 		.word	adc_countsPer10Volt
 281              		.cfi_endproc
 282              	.LFE2:
 283              		.size	adc_Init, .-adc_Init
 284              		.section	.text.adc_Enable,"ax",%progbits
 285              		.align	2
 286              		.global	adc_Enable
 287              		.code	16
 288              		.thumb_func
 289              		.type	adc_Enable, %function
 290              	adc_Enable:
 291              	.LFB3:
 316:Generated_Source\PSoC4/adc.c **** 
 317:Generated_Source\PSoC4/adc.c **** /*******************************************************************************
 318:Generated_Source\PSoC4/adc.c **** * Function Name: ADC_SAR_1_Enable
 319:Generated_Source\PSoC4/adc.c **** ********************************************************************************
 320:Generated_Source\PSoC4/adc.c **** *
 321:Generated_Source\PSoC4/adc.c **** * Summary:
 322:Generated_Source\PSoC4/adc.c **** *  Enables the clock and analog power for SAR ADC.
 323:Generated_Source\PSoC4/adc.c **** *
 324:Generated_Source\PSoC4/adc.c **** * Parameters:
 325:Generated_Source\PSoC4/adc.c **** *  None.
 326:Generated_Source\PSoC4/adc.c **** *
 327:Generated_Source\PSoC4/adc.c **** * Return:
 328:Generated_Source\PSoC4/adc.c **** *  None.
 329:Generated_Source\PSoC4/adc.c **** *
 330:Generated_Source\PSoC4/adc.c **** *******************************************************************************/
 331:Generated_Source\PSoC4/adc.c **** void adc_Enable(void)
ARM GAS  C:\Users\NGUYEN~1\AppData\Local\Temp\ccVP94za.s 			page 12


 332:Generated_Source\PSoC4/adc.c **** {
 292              		.loc 1 332 0
 293              		.cfi_startproc
 294              		@ args = 0, pretend = 0, frame = 0
 295              		@ frame_needed = 0, uses_anonymous_args = 0
 296 0000 10B5     		push	{r4, lr}
 297              		.cfi_def_cfa_offset 8
 298              		.cfi_offset 4, -8
 299              		.cfi_offset 14, -4
 333:Generated_Source\PSoC4/adc.c ****     if (0u == (adc_SAR_CTRL_REG & adc_ENABLE))
 300              		.loc 1 333 0
 301 0002 094B     		ldr	r3, .L17
 302 0004 1B68     		ldr	r3, [r3]
 303 0006 002B     		cmp	r3, #0
 304 0008 0CDB     		blt	.L14
 305              	.L16:
 334:Generated_Source\PSoC4/adc.c ****     {
 335:Generated_Source\PSoC4/adc.c ****         #if(adc_CY_SAR_IP_VER != adc_CY_SAR_IP_VER0)
 336:Generated_Source\PSoC4/adc.c **** 
 337:Generated_Source\PSoC4/adc.c ****             while (0u != (adc_SAR_STATUS_REG & adc_STATUS_BUSY))
 306              		.loc 1 337 0 discriminator 1
 307 000a 084B     		ldr	r3, .L17+4
 308 000c 1B68     		ldr	r3, [r3]
 309 000e 002B     		cmp	r3, #0
 310 0010 FBDB     		blt	.L16
 338:Generated_Source\PSoC4/adc.c ****             {
 339:Generated_Source\PSoC4/adc.c ****                 /* wait for SAR to go idle to avoid deadlock */
 340:Generated_Source\PSoC4/adc.c ****             }
 341:Generated_Source\PSoC4/adc.c ****         #endif /* (adc_CY_SAR_IP_VER != adc_CY_SAR_IP_VER0) */
 342:Generated_Source\PSoC4/adc.c ****         
 343:Generated_Source\PSoC4/adc.c ****         adc_SAR_CTRL_REG |= adc_ENABLE;
 311              		.loc 1 343 0
 312 0012 054A     		ldr	r2, .L17
 313 0014 1368     		ldr	r3, [r2]
 314 0016 8021     		movs	r1, #128
 315 0018 0906     		lsls	r1, r1, #24
 316 001a 0B43     		orrs	r3, r1
 317 001c 1360     		str	r3, [r2]
 344:Generated_Source\PSoC4/adc.c ****         
 345:Generated_Source\PSoC4/adc.c ****         /* The block is ready to use 10 us after the enable signal is set high. */
 346:Generated_Source\PSoC4/adc.c ****         CyDelayUs(adc_10US_DELAY);         
 318              		.loc 1 346 0
 319 001e 0A20     		movs	r0, #10
 320 0020 FFF7FEFF 		bl	CyDelayUs
 321              	.LVL25:
 322              	.L14:
 347:Generated_Source\PSoC4/adc.c ****     }
 348:Generated_Source\PSoC4/adc.c **** }
 323              		.loc 1 348 0
 324              		@ sp needed
 325 0024 10BD     		pop	{r4, pc}
 326              	.L18:
 327 0026 C046     		.align	2
 328              	.L17:
 329 0028 00003A40 		.word	1077542912
 330 002c 08023A40 		.word	1077543432
 331              		.cfi_endproc
ARM GAS  C:\Users\NGUYEN~1\AppData\Local\Temp\ccVP94za.s 			page 13


 332              	.LFE3:
 333              		.size	adc_Enable, .-adc_Enable
 334              		.section	.text.adc_Start,"ax",%progbits
 335              		.align	2
 336              		.global	adc_Start
 337              		.code	16
 338              		.thumb_func
 339              		.type	adc_Start, %function
 340              	adc_Start:
 341              	.LFB1:
  65:Generated_Source\PSoC4/adc.c ****     /* If not Initialized then initialize all required hardware and software */
 342              		.loc 1 65 0
 343              		.cfi_startproc
 344              		@ args = 0, pretend = 0, frame = 0
 345              		@ frame_needed = 0, uses_anonymous_args = 0
 346 0000 10B5     		push	{r4, lr}
 347              		.cfi_def_cfa_offset 8
 348              		.cfi_offset 4, -8
 349              		.cfi_offset 14, -4
  67:Generated_Source\PSoC4/adc.c ****     {
 350              		.loc 1 67 0
 351 0002 064B     		ldr	r3, .L21
 352 0004 1B78     		ldrb	r3, [r3]
 353 0006 002B     		cmp	r3, #0
 354 0008 04D1     		bne	.L20
  69:Generated_Source\PSoC4/adc.c ****         adc_initVar = 1u;
 355              		.loc 1 69 0
 356 000a FFF7FEFF 		bl	adc_Init
 357              	.LVL26:
  70:Generated_Source\PSoC4/adc.c ****     }
 358              		.loc 1 70 0
 359 000e 0122     		movs	r2, #1
 360 0010 024B     		ldr	r3, .L21
 361 0012 1A70     		strb	r2, [r3]
 362              	.L20:
  72:Generated_Source\PSoC4/adc.c **** }
 363              		.loc 1 72 0
 364 0014 FFF7FEFF 		bl	adc_Enable
 365              	.LVL27:
  73:Generated_Source\PSoC4/adc.c **** 
 366              		.loc 1 73 0
 367              		@ sp needed
 368 0018 10BD     		pop	{r4, pc}
 369              	.L22:
 370 001a C046     		.align	2
 371              	.L21:
 372 001c 00000000 		.word	.LANCHOR1
 373              		.cfi_endproc
 374              	.LFE1:
 375              		.size	adc_Start, .-adc_Start
 376              		.section	.text.adc_Stop,"ax",%progbits
 377              		.align	2
 378              		.global	adc_Stop
 379              		.code	16
 380              		.thumb_func
 381              		.type	adc_Stop, %function
 382              	adc_Stop:
ARM GAS  C:\Users\NGUYEN~1\AppData\Local\Temp\ccVP94za.s 			page 14


 383              	.LFB4:
 349:Generated_Source\PSoC4/adc.c **** 
 350:Generated_Source\PSoC4/adc.c **** 
 351:Generated_Source\PSoC4/adc.c **** /*******************************************************************************
 352:Generated_Source\PSoC4/adc.c **** * Function Name: adc_Stop
 353:Generated_Source\PSoC4/adc.c **** ********************************************************************************
 354:Generated_Source\PSoC4/adc.c **** *
 355:Generated_Source\PSoC4/adc.c **** * Summary:
 356:Generated_Source\PSoC4/adc.c **** *  This function stops ADC conversions and puts the ADC into its lowest power
 357:Generated_Source\PSoC4/adc.c **** *  mode.
 358:Generated_Source\PSoC4/adc.c **** *
 359:Generated_Source\PSoC4/adc.c **** * Parameters:
 360:Generated_Source\PSoC4/adc.c **** *  None.
 361:Generated_Source\PSoC4/adc.c **** *
 362:Generated_Source\PSoC4/adc.c **** * Return:
 363:Generated_Source\PSoC4/adc.c **** *  None.
 364:Generated_Source\PSoC4/adc.c **** *
 365:Generated_Source\PSoC4/adc.c **** *******************************************************************************/
 366:Generated_Source\PSoC4/adc.c **** void adc_Stop(void)
 367:Generated_Source\PSoC4/adc.c **** {
 384              		.loc 1 367 0
 385              		.cfi_startproc
 386              		@ args = 0, pretend = 0, frame = 0
 387              		@ frame_needed = 0, uses_anonymous_args = 0
 388              		@ link register save eliminated.
 368:Generated_Source\PSoC4/adc.c ****     adc_SAR_CTRL_REG &= (uint32)~adc_ENABLE;
 389              		.loc 1 368 0
 390 0000 024A     		ldr	r2, .L24
 391 0002 1368     		ldr	r3, [r2]
 392 0004 5B00     		lsls	r3, r3, #1
 393 0006 5B08     		lsrs	r3, r3, #1
 394 0008 1360     		str	r3, [r2]
 369:Generated_Source\PSoC4/adc.c **** }
 395              		.loc 1 369 0
 396              		@ sp needed
 397 000a 7047     		bx	lr
 398              	.L25:
 399              		.align	2
 400              	.L24:
 401 000c 00003A40 		.word	1077542912
 402              		.cfi_endproc
 403              	.LFE4:
 404              		.size	adc_Stop, .-adc_Stop
 405              		.section	.text.adc_StartConvert,"ax",%progbits
 406              		.align	2
 407              		.global	adc_StartConvert
 408              		.code	16
 409              		.thumb_func
 410              		.type	adc_StartConvert, %function
 411              	adc_StartConvert:
 412              	.LFB5:
 370:Generated_Source\PSoC4/adc.c **** 
 371:Generated_Source\PSoC4/adc.c **** 
 372:Generated_Source\PSoC4/adc.c **** /*******************************************************************************
 373:Generated_Source\PSoC4/adc.c **** * Function Name: adc_StartConvert
 374:Generated_Source\PSoC4/adc.c **** ********************************************************************************
 375:Generated_Source\PSoC4/adc.c **** *
ARM GAS  C:\Users\NGUYEN~1\AppData\Local\Temp\ccVP94za.s 			page 15


 376:Generated_Source\PSoC4/adc.c **** * Summary:
 377:Generated_Source\PSoC4/adc.c **** *  Description:
 378:Generated_Source\PSoC4/adc.c **** *  For free running mode, this API starts the conversion process and it
 379:Generated_Source\PSoC4/adc.c **** *  runs continuously.
 380:Generated_Source\PSoC4/adc.c **** *
 381:Generated_Source\PSoC4/adc.c **** *  In a triggered mode, this routine triggers every conversion by
 382:Generated_Source\PSoC4/adc.c **** *  writing into the FW_TRIGGER bit in SAR_START_CTRL reg. In triggered mode,
 383:Generated_Source\PSoC4/adc.c **** *  every conversion has to start by this API.
 384:Generated_Source\PSoC4/adc.c **** *
 385:Generated_Source\PSoC4/adc.c **** * Parameters:
 386:Generated_Source\PSoC4/adc.c **** *  None.
 387:Generated_Source\PSoC4/adc.c **** *
 388:Generated_Source\PSoC4/adc.c **** * Return:
 389:Generated_Source\PSoC4/adc.c **** *  None.
 390:Generated_Source\PSoC4/adc.c **** *
 391:Generated_Source\PSoC4/adc.c **** *******************************************************************************/
 392:Generated_Source\PSoC4/adc.c **** void adc_StartConvert(void)
 393:Generated_Source\PSoC4/adc.c **** {
 413              		.loc 1 393 0
 414              		.cfi_startproc
 415              		@ args = 0, pretend = 0, frame = 0
 416              		@ frame_needed = 0, uses_anonymous_args = 0
 417              		@ link register save eliminated.
 394:Generated_Source\PSoC4/adc.c ****     #if(adc_DEFAULT_SAMPLE_MODE_SEL == adc__FREERUNNING)
 395:Generated_Source\PSoC4/adc.c ****         adc_SAR_SAMPLE_CTRL_REG |= adc_CONTINUOUS_EN;
 418              		.loc 1 395 0
 419 0000 034A     		ldr	r2, .L27
 420 0002 1368     		ldr	r3, [r2]
 421 0004 8021     		movs	r1, #128
 422 0006 4902     		lsls	r1, r1, #9
 423 0008 0B43     		orrs	r3, r1
 424 000a 1360     		str	r3, [r2]
 396:Generated_Source\PSoC4/adc.c ****     #else /* Firmware trigger */
 397:Generated_Source\PSoC4/adc.c ****         adc_SAR_START_CTRL_REG = adc_FW_TRIGGER;
 398:Generated_Source\PSoC4/adc.c ****     #endif /* End adc_DEFAULT_SAMPLE_MODE == adc__FREERUNNING */
 399:Generated_Source\PSoC4/adc.c **** 
 400:Generated_Source\PSoC4/adc.c **** }
 425              		.loc 1 400 0
 426              		@ sp needed
 427 000c 7047     		bx	lr
 428              	.L28:
 429 000e C046     		.align	2
 430              	.L27:
 431 0010 04003A40 		.word	1077542916
 432              		.cfi_endproc
 433              	.LFE5:
 434              		.size	adc_StartConvert, .-adc_StartConvert
 435              		.section	.text.adc_StopConvert,"ax",%progbits
 436              		.align	2
 437              		.global	adc_StopConvert
 438              		.code	16
 439              		.thumb_func
 440              		.type	adc_StopConvert, %function
 441              	adc_StopConvert:
 442              	.LFB6:
 401:Generated_Source\PSoC4/adc.c **** 
 402:Generated_Source\PSoC4/adc.c **** 
ARM GAS  C:\Users\NGUYEN~1\AppData\Local\Temp\ccVP94za.s 			page 16


 403:Generated_Source\PSoC4/adc.c **** /*******************************************************************************
 404:Generated_Source\PSoC4/adc.c **** * Function Name: adc_StopConvert
 405:Generated_Source\PSoC4/adc.c **** ********************************************************************************
 406:Generated_Source\PSoC4/adc.c **** *
 407:Generated_Source\PSoC4/adc.c **** * Summary:
 408:Generated_Source\PSoC4/adc.c **** *  Forces the ADC to stop all conversions.
 409:Generated_Source\PSoC4/adc.c **** *
 410:Generated_Source\PSoC4/adc.c **** * Parameters:
 411:Generated_Source\PSoC4/adc.c **** *  None.
 412:Generated_Source\PSoC4/adc.c **** *
 413:Generated_Source\PSoC4/adc.c **** * Return:
 414:Generated_Source\PSoC4/adc.c **** *  None.
 415:Generated_Source\PSoC4/adc.c **** *
 416:Generated_Source\PSoC4/adc.c **** *******************************************************************************/
 417:Generated_Source\PSoC4/adc.c **** void adc_StopConvert(void)
 418:Generated_Source\PSoC4/adc.c **** {
 443              		.loc 1 418 0
 444              		.cfi_startproc
 445              		@ args = 0, pretend = 0, frame = 0
 446              		@ frame_needed = 0, uses_anonymous_args = 0
 447              		@ link register save eliminated.
 419:Generated_Source\PSoC4/adc.c ****     #if(adc_DEFAULT_SAMPLE_MODE_SEL == adc__FREERUNNING)
 420:Generated_Source\PSoC4/adc.c ****         adc_SAR_SAMPLE_CTRL_REG &= (uint32)(~adc_CONTINUOUS_EN);
 448              		.loc 1 420 0
 449 0000 024A     		ldr	r2, .L30
 450 0002 1168     		ldr	r1, [r2]
 451 0004 024B     		ldr	r3, .L30+4
 452 0006 0B40     		ands	r3, r1
 453 0008 1360     		str	r3, [r2]
 421:Generated_Source\PSoC4/adc.c ****     #endif /* adc_DEFAULT_SAMPLE_MODE == adc__FREERUNNING */
 422:Generated_Source\PSoC4/adc.c **** }
 454              		.loc 1 422 0
 455              		@ sp needed
 456 000a 7047     		bx	lr
 457              	.L31:
 458              		.align	2
 459              	.L30:
 460 000c 04003A40 		.word	1077542916
 461 0010 FFFFFEFF 		.word	-65537
 462              		.cfi_endproc
 463              	.LFE6:
 464              		.size	adc_StopConvert, .-adc_StopConvert
 465              		.section	.text.adc_IsEndConversion,"ax",%progbits
 466              		.align	2
 467              		.global	adc_IsEndConversion
 468              		.code	16
 469              		.thumb_func
 470              		.type	adc_IsEndConversion, %function
 471              	adc_IsEndConversion:
 472              	.LFB7:
 423:Generated_Source\PSoC4/adc.c **** 
 424:Generated_Source\PSoC4/adc.c **** 
 425:Generated_Source\PSoC4/adc.c **** /*******************************************************************************
 426:Generated_Source\PSoC4/adc.c **** * Function Name: adc_IsEndConversion
 427:Generated_Source\PSoC4/adc.c **** ********************************************************************************
 428:Generated_Source\PSoC4/adc.c **** *
 429:Generated_Source\PSoC4/adc.c **** * Summary:
ARM GAS  C:\Users\NGUYEN~1\AppData\Local\Temp\ccVP94za.s 			page 17


 430:Generated_Source\PSoC4/adc.c **** *  Description: Checks for ADC end of conversion for the case one
 431:Generated_Source\PSoC4/adc.c **** *  channel and end of scan for the case of multiple channels. It acts
 432:Generated_Source\PSoC4/adc.c **** *  as a software version of the EOC. This function provides the
 433:Generated_Source\PSoC4/adc.c **** *  programmer with two options. In one mode this function
 434:Generated_Source\PSoC4/adc.c **** *  immediately returns with the conversion status. In the other mode,
 435:Generated_Source\PSoC4/adc.c **** *  the function does not return (blocking) until the conversion has
 436:Generated_Source\PSoC4/adc.c **** *  completed.
 437:Generated_Source\PSoC4/adc.c **** *
 438:Generated_Source\PSoC4/adc.c **** * Parameters:
 439:Generated_Source\PSoC4/adc.c **** *  ADC_RETURN_STATUS        -> Immediately returns conversion result status
 440:Generated_Source\PSoC4/adc.c **** *  ADC_WAIT_FOR_RESULT      -> Does not return until ADC complete
 441:Generated_Source\PSoC4/adc.c **** *  ADC_RETURN_STATUS_INJ    -> Immediately returns conversion result status
 442:Generated_Source\PSoC4/adc.c **** *                              for injection channel
 443:Generated_Source\PSoC4/adc.c **** *  ADC_WAIT_FOR_RESULT_INJ  -> Does not return until ADC completes injection
 444:Generated_Source\PSoC4/adc.c **** *                              channel conversion
 445:Generated_Source\PSoC4/adc.c **** *
 446:Generated_Source\PSoC4/adc.c **** * Return:
 447:Generated_Source\PSoC4/adc.c **** *  If a non-zero value is returned, the last conversion or scan has completed.
 448:Generated_Source\PSoC4/adc.c **** *  If the returned value is zero, the ADC is still in the process of a scan.
 449:Generated_Source\PSoC4/adc.c **** *
 450:Generated_Source\PSoC4/adc.c **** *******************************************************************************/
 451:Generated_Source\PSoC4/adc.c **** uint32 adc_IsEndConversion(uint32 retMode)
 452:Generated_Source\PSoC4/adc.c **** {
 473              		.loc 1 452 0
 474              		.cfi_startproc
 475              		@ args = 0, pretend = 0, frame = 0
 476              		@ frame_needed = 0, uses_anonymous_args = 0
 477              		@ link register save eliminated.
 478              	.LVL28:
 479 0000 0200     		movs	r2, r0
 480              	.LVL29:
 453:Generated_Source\PSoC4/adc.c ****     uint32 status = 0u;
 454:Generated_Source\PSoC4/adc.c **** 
 455:Generated_Source\PSoC4/adc.c ****     if((retMode & (adc_RETURN_STATUS | adc_WAIT_FOR_RESULT)) != 0u)
 481              		.loc 1 455 0
 482 0002 8307     		lsls	r3, r0, #30
 483 0004 0CD0     		beq	.L36
 484              	.LVL30:
 485              	.L35:
 456:Generated_Source\PSoC4/adc.c ****     {
 457:Generated_Source\PSoC4/adc.c ****         do
 458:Generated_Source\PSoC4/adc.c ****         {
 459:Generated_Source\PSoC4/adc.c ****             status = adc_SAR_INTR_REG & adc_EOS_MASK;
 486              		.loc 1 459 0 discriminator 2
 487 0006 074B     		ldr	r3, .L37
 488 0008 1B68     		ldr	r3, [r3]
 489 000a 0120     		movs	r0, #1
 490 000c 1840     		ands	r0, r3
 491              	.LVL31:
 460:Generated_Source\PSoC4/adc.c ****         }while((status == 0u) && ((retMode & adc_WAIT_FOR_RESULT) != 0u));
 492              		.loc 1 460 0 discriminator 2
 493 000e 01D1     		bne	.L34
 494              		.loc 1 460 0 is_stmt 0 discriminator 1
 495 0010 9307     		lsls	r3, r2, #30
 496 0012 F8D4     		bmi	.L35
 497              	.L34:
 461:Generated_Source\PSoC4/adc.c **** 
ARM GAS  C:\Users\NGUYEN~1\AppData\Local\Temp\ccVP94za.s 			page 18


 462:Generated_Source\PSoC4/adc.c ****         if(status != 0u)
 498              		.loc 1 462 0 is_stmt 1
 499 0014 0028     		cmp	r0, #0
 500 0016 04D0     		beq	.L33
 463:Generated_Source\PSoC4/adc.c ****         {
 464:Generated_Source\PSoC4/adc.c ****             /* Clear EOS bit */
 465:Generated_Source\PSoC4/adc.c ****             adc_SAR_INTR_REG = adc_EOS_MASK;
 501              		.loc 1 465 0
 502 0018 0122     		movs	r2, #1
 503              	.LVL32:
 504 001a 024B     		ldr	r3, .L37
 505 001c 1A60     		str	r2, [r3]
 506 001e 00E0     		b	.L33
 507              	.LVL33:
 508              	.L36:
 453:Generated_Source\PSoC4/adc.c **** 
 509              		.loc 1 453 0
 510 0020 0020     		movs	r0, #0
 511              	.LVL34:
 512              	.L33:
 466:Generated_Source\PSoC4/adc.c ****         }
 467:Generated_Source\PSoC4/adc.c ****     }
 468:Generated_Source\PSoC4/adc.c **** 
 469:Generated_Source\PSoC4/adc.c ****     #if(adc_INJ_CHANNEL_ENABLED)
 470:Generated_Source\PSoC4/adc.c ****         if((retMode & (adc_RETURN_STATUS_INJ | adc_WAIT_FOR_RESULT_INJ)) != 0u)
 471:Generated_Source\PSoC4/adc.c ****         {
 472:Generated_Source\PSoC4/adc.c ****             do
 473:Generated_Source\PSoC4/adc.c ****             {
 474:Generated_Source\PSoC4/adc.c ****                 status |= adc_SAR_INTR_REG & adc_INJ_EOC_MASK;
 475:Generated_Source\PSoC4/adc.c ****             }while(((status & adc_INJ_EOC_MASK) == 0u) &&
 476:Generated_Source\PSoC4/adc.c ****                    ((retMode & adc_WAIT_FOR_RESULT_INJ) != 0u));
 477:Generated_Source\PSoC4/adc.c **** 
 478:Generated_Source\PSoC4/adc.c ****             if((status & adc_INJ_EOC_MASK) != 0u)
 479:Generated_Source\PSoC4/adc.c ****             {
 480:Generated_Source\PSoC4/adc.c ****                 /* Clear Injection EOS bit */
 481:Generated_Source\PSoC4/adc.c ****                 adc_SAR_INTR_REG = adc_INJ_EOC_MASK;
 482:Generated_Source\PSoC4/adc.c ****             }
 483:Generated_Source\PSoC4/adc.c ****         }
 484:Generated_Source\PSoC4/adc.c ****     #endif /* adc_INJ_CHANNEL_ENABLED */
 485:Generated_Source\PSoC4/adc.c **** 
 486:Generated_Source\PSoC4/adc.c ****     return (status);
 487:Generated_Source\PSoC4/adc.c **** }
 513              		.loc 1 487 0
 514              		@ sp needed
 515 0022 7047     		bx	lr
 516              	.L38:
 517              		.align	2
 518              	.L37:
 519 0024 10023A40 		.word	1077543440
 520              		.cfi_endproc
 521              	.LFE7:
 522              		.size	adc_IsEndConversion, .-adc_IsEndConversion
 523              		.section	.text.adc_GetResult16,"ax",%progbits
 524              		.align	2
 525              		.global	adc_GetResult16
 526              		.code	16
 527              		.thumb_func
ARM GAS  C:\Users\NGUYEN~1\AppData\Local\Temp\ccVP94za.s 			page 19


 528              		.type	adc_GetResult16, %function
 529              	adc_GetResult16:
 530              	.LFB8:
 488:Generated_Source\PSoC4/adc.c **** 
 489:Generated_Source\PSoC4/adc.c **** 
 490:Generated_Source\PSoC4/adc.c **** /*******************************************************************************
 491:Generated_Source\PSoC4/adc.c **** * Function Name: adc_GetResult16
 492:Generated_Source\PSoC4/adc.c **** ********************************************************************************
 493:Generated_Source\PSoC4/adc.c **** *
 494:Generated_Source\PSoC4/adc.c **** * Summary:
 495:Generated_Source\PSoC4/adc.c **** *  Gets the data available in the SAR DATA register.
 496:Generated_Source\PSoC4/adc.c **** *
 497:Generated_Source\PSoC4/adc.c **** * Parameters:
 498:Generated_Source\PSoC4/adc.c **** *  chan: The ADC channel in which to return the result. The first channel
 499:Generated_Source\PSoC4/adc.c **** *  is 0 and the injection channel if enabled is the number of valid channels.
 500:Generated_Source\PSoC4/adc.c **** *
 501:Generated_Source\PSoC4/adc.c **** * Return:
 502:Generated_Source\PSoC4/adc.c **** *  Returns converted data as a signed 16-bit integer
 503:Generated_Source\PSoC4/adc.c **** *
 504:Generated_Source\PSoC4/adc.c **** *******************************************************************************/
 505:Generated_Source\PSoC4/adc.c **** int16 adc_GetResult16(uint32 chan)
 506:Generated_Source\PSoC4/adc.c **** {
 531              		.loc 1 506 0
 532              		.cfi_startproc
 533              		@ args = 0, pretend = 0, frame = 0
 534              		@ frame_needed = 0, uses_anonymous_args = 0
 535              	.LVL35:
 536 0000 10B5     		push	{r4, lr}
 537              		.cfi_def_cfa_offset 8
 538              		.cfi_offset 4, -8
 539              		.cfi_offset 14, -4
 540 0002 0400     		movs	r4, r0
 507:Generated_Source\PSoC4/adc.c ****     uint32 result;
 508:Generated_Source\PSoC4/adc.c **** 
 509:Generated_Source\PSoC4/adc.c ****     /* Halt CPU in debug mode if channel is out of valid range */
 510:Generated_Source\PSoC4/adc.c ****     CYASSERT(chan < adc_TOTAL_CHANNELS_NUM);
 541              		.loc 1 510 0
 542 0004 0528     		cmp	r0, #5
 543 0006 02D9     		bls	.L40
 544              		.loc 1 510 0 is_stmt 0 discriminator 1
 545 0008 0020     		movs	r0, #0
 546              	.LVL36:
 547 000a FFF7FEFF 		bl	CyHalt
 548              	.LVL37:
 549              	.L40:
 511:Generated_Source\PSoC4/adc.c **** 
 512:Generated_Source\PSoC4/adc.c ****     if(chan < adc_SEQUENCED_CHANNELS_NUM)
 550              		.loc 1 512 0 is_stmt 1
 551 000e 052C     		cmp	r4, #5
 552 0010 07D8     		bhi	.L42
 513:Generated_Source\PSoC4/adc.c ****     {
 514:Generated_Source\PSoC4/adc.c ****         result = CY_GET_REG32((reg32 *)(adc_SAR_CHAN_RESULT_IND + (uint32)(chan << 2u))) &
 553              		.loc 1 514 0
 554 0012 A400     		lsls	r4, r4, #2
 555              	.LVL38:
 556 0014 044B     		ldr	r3, .L43
 557 0016 9C46     		mov	ip, r3
ARM GAS  C:\Users\NGUYEN~1\AppData\Local\Temp\ccVP94za.s 			page 20


 558 0018 6444     		add	r4, r4, ip
 559 001a 2068     		ldr	r0, [r4]
 560 001c 0004     		lsls	r0, r0, #16
 561 001e 000C     		lsrs	r0, r0, #16
 562              	.LVL39:
 563 0020 00E0     		b	.L41
 564              	.LVL40:
 565              	.L42:
 515:Generated_Source\PSoC4/adc.c ****                 adc_RESULT_MASK;
 516:Generated_Source\PSoC4/adc.c ****     }
 517:Generated_Source\PSoC4/adc.c ****     else
 518:Generated_Source\PSoC4/adc.c ****     {
 519:Generated_Source\PSoC4/adc.c ****         #if(adc_INJ_CHANNEL_ENABLED)
 520:Generated_Source\PSoC4/adc.c ****             result = adc_SAR_INJ_RESULT_REG & adc_RESULT_MASK;
 521:Generated_Source\PSoC4/adc.c ****         #else
 522:Generated_Source\PSoC4/adc.c ****             result = 0u;
 566              		.loc 1 522 0
 567 0022 0020     		movs	r0, #0
 568              	.LVL41:
 569              	.L41:
 523:Generated_Source\PSoC4/adc.c ****         #endif /* adc_INJ_CHANNEL_ENABLED */
 524:Generated_Source\PSoC4/adc.c ****     }
 525:Generated_Source\PSoC4/adc.c **** 
 526:Generated_Source\PSoC4/adc.c ****     return ( (int16)result );
 570              		.loc 1 526 0
 571 0024 00B2     		sxth	r0, r0
 572              	.LVL42:
 527:Generated_Source\PSoC4/adc.c **** }
 573              		.loc 1 527 0
 574              		@ sp needed
 575 0026 10BD     		pop	{r4, pc}
 576              	.L44:
 577              		.align	2
 578              	.L43:
 579 0028 80013A40 		.word	1077543296
 580              		.cfi_endproc
 581              	.LFE8:
 582              		.size	adc_GetResult16, .-adc_GetResult16
 583              		.section	.text.adc_SetChanMask,"ax",%progbits
 584              		.align	2
 585              		.global	adc_SetChanMask
 586              		.code	16
 587              		.thumb_func
 588              		.type	adc_SetChanMask, %function
 589              	adc_SetChanMask:
 590              	.LFB9:
 528:Generated_Source\PSoC4/adc.c **** 
 529:Generated_Source\PSoC4/adc.c **** 
 530:Generated_Source\PSoC4/adc.c **** /*******************************************************************************
 531:Generated_Source\PSoC4/adc.c **** * Function Name: adc_SetChanMask
 532:Generated_Source\PSoC4/adc.c **** ********************************************************************************
 533:Generated_Source\PSoC4/adc.c **** *
 534:Generated_Source\PSoC4/adc.c **** * Summary:
 535:Generated_Source\PSoC4/adc.c **** *  Sets the channel enable mask.
 536:Generated_Source\PSoC4/adc.c **** *
 537:Generated_Source\PSoC4/adc.c **** * Parameters:
 538:Generated_Source\PSoC4/adc.c **** *  mask: Sets which channels that will be
ARM GAS  C:\Users\NGUYEN~1\AppData\Local\Temp\ccVP94za.s 			page 21


 539:Generated_Source\PSoC4/adc.c **** *  scanned. Setting bits for channels that do not exist will have no
 540:Generated_Source\PSoC4/adc.c **** *  effect. For example, if only 6 channels were enabled, setting a
 541:Generated_Source\PSoC4/adc.c **** *  mask of 0x0103 would only enable the last two channels (0 and 1).
 542:Generated_Source\PSoC4/adc.c **** *  This API will not enable the injection channel.
 543:Generated_Source\PSoC4/adc.c **** *  Examples: If the component is setup to sequence through 8
 544:Generated_Source\PSoC4/adc.c **** *  channels, a mask of 0x000F would enable channels 0, 1, 2, and 3.
 545:Generated_Source\PSoC4/adc.c **** *
 546:Generated_Source\PSoC4/adc.c **** * Return:
 547:Generated_Source\PSoC4/adc.c **** *  None.
 548:Generated_Source\PSoC4/adc.c **** *
 549:Generated_Source\PSoC4/adc.c **** *******************************************************************************/
 550:Generated_Source\PSoC4/adc.c **** void adc_SetChanMask(uint32 mask)
 551:Generated_Source\PSoC4/adc.c **** {
 591              		.loc 1 551 0
 592              		.cfi_startproc
 593              		@ args = 0, pretend = 0, frame = 0
 594              		@ frame_needed = 0, uses_anonymous_args = 0
 595              		@ link register save eliminated.
 596              	.LVL43:
 552:Generated_Source\PSoC4/adc.c ****     adc_SAR_CHAN_EN_REG = mask & adc_MAX_CHANNELS_EN_MASK;
 597              		.loc 1 552 0
 598 0000 3F23     		movs	r3, #63
 599 0002 1840     		ands	r0, r3
 600              	.LVL44:
 601 0004 014B     		ldr	r3, .L46
 602 0006 1860     		str	r0, [r3]
 553:Generated_Source\PSoC4/adc.c **** }
 603              		.loc 1 553 0
 604              		@ sp needed
 605 0008 7047     		bx	lr
 606              	.L47:
 607 000a C046     		.align	2
 608              	.L46:
 609 000c 20003A40 		.word	1077542944
 610              		.cfi_endproc
 611              	.LFE9:
 612              		.size	adc_SetChanMask, .-adc_SetChanMask
 613              		.section	.text.adc_SetLowLimit,"ax",%progbits
 614              		.align	2
 615              		.global	adc_SetLowLimit
 616              		.code	16
 617              		.thumb_func
 618              		.type	adc_SetLowLimit, %function
 619              	adc_SetLowLimit:
 620              	.LFB10:
 554:Generated_Source\PSoC4/adc.c **** 
 555:Generated_Source\PSoC4/adc.c **** #if(adc_INJ_CHANNEL_ENABLED)
 556:Generated_Source\PSoC4/adc.c **** 
 557:Generated_Source\PSoC4/adc.c **** 
 558:Generated_Source\PSoC4/adc.c ****     /*******************************************************************************
 559:Generated_Source\PSoC4/adc.c ****     * Function Name: adc_EnableInjection
 560:Generated_Source\PSoC4/adc.c ****     ********************************************************************************
 561:Generated_Source\PSoC4/adc.c ****     *
 562:Generated_Source\PSoC4/adc.c ****     * Summary:
 563:Generated_Source\PSoC4/adc.c ****     *  Enables the injection channel for the next scan only.
 564:Generated_Source\PSoC4/adc.c ****     *
 565:Generated_Source\PSoC4/adc.c ****     * Parameters:
ARM GAS  C:\Users\NGUYEN~1\AppData\Local\Temp\ccVP94za.s 			page 22


 566:Generated_Source\PSoC4/adc.c ****     *  None.
 567:Generated_Source\PSoC4/adc.c ****     *
 568:Generated_Source\PSoC4/adc.c ****     * Return:
 569:Generated_Source\PSoC4/adc.c ****     *  None.
 570:Generated_Source\PSoC4/adc.c ****     *
 571:Generated_Source\PSoC4/adc.c ****     *******************************************************************************/
 572:Generated_Source\PSoC4/adc.c ****     void adc_EnableInjection(void)
 573:Generated_Source\PSoC4/adc.c ****     {
 574:Generated_Source\PSoC4/adc.c ****         adc_SAR_INJ_CHAN_CONFIG_REG |= adc_INJ_CHAN_EN;
 575:Generated_Source\PSoC4/adc.c ****     }
 576:Generated_Source\PSoC4/adc.c **** 
 577:Generated_Source\PSoC4/adc.c **** #endif /* adc_INJ_CHANNEL_ENABLED */
 578:Generated_Source\PSoC4/adc.c **** 
 579:Generated_Source\PSoC4/adc.c **** 
 580:Generated_Source\PSoC4/adc.c **** /*******************************************************************************
 581:Generated_Source\PSoC4/adc.c **** * Function Name: adc_SetLowLimit
 582:Generated_Source\PSoC4/adc.c **** ********************************************************************************
 583:Generated_Source\PSoC4/adc.c **** *
 584:Generated_Source\PSoC4/adc.c **** * Summary:
 585:Generated_Source\PSoC4/adc.c **** *  Sets the low limit parameter for a limit condition.
 586:Generated_Source\PSoC4/adc.c **** *
 587:Generated_Source\PSoC4/adc.c **** * Parameters:
 588:Generated_Source\PSoC4/adc.c **** *  lowLimit: The low limit for a limit condition.
 589:Generated_Source\PSoC4/adc.c **** *
 590:Generated_Source\PSoC4/adc.c **** * Return:
 591:Generated_Source\PSoC4/adc.c **** *  None.
 592:Generated_Source\PSoC4/adc.c **** *
 593:Generated_Source\PSoC4/adc.c **** *******************************************************************************/
 594:Generated_Source\PSoC4/adc.c **** void adc_SetLowLimit(uint32 lowLimit)
 595:Generated_Source\PSoC4/adc.c **** {
 621              		.loc 1 595 0
 622              		.cfi_startproc
 623              		@ args = 0, pretend = 0, frame = 0
 624              		@ frame_needed = 0, uses_anonymous_args = 0
 625              		@ link register save eliminated.
 626              	.LVL45:
 596:Generated_Source\PSoC4/adc.c ****     adc_SAR_RANGE_THRES_REG &= (uint32)(~adc_RANGE_LOW_MASK);
 627              		.loc 1 596 0
 628 0000 054A     		ldr	r2, .L49
 629 0002 1368     		ldr	r3, [r2]
 630 0004 1B0C     		lsrs	r3, r3, #16
 631 0006 1B04     		lsls	r3, r3, #16
 632 0008 1360     		str	r3, [r2]
 597:Generated_Source\PSoC4/adc.c ****     adc_SAR_RANGE_THRES_REG |= lowLimit & adc_RANGE_LOW_MASK;
 633              		.loc 1 597 0
 634 000a 1368     		ldr	r3, [r2]
 635 000c 0004     		lsls	r0, r0, #16
 636              	.LVL46:
 637 000e 000C     		lsrs	r0, r0, #16
 638 0010 1843     		orrs	r0, r3
 639 0012 1060     		str	r0, [r2]
 598:Generated_Source\PSoC4/adc.c **** }
 640              		.loc 1 598 0
 641              		@ sp needed
 642 0014 7047     		bx	lr
 643              	.L50:
 644 0016 C046     		.align	2
ARM GAS  C:\Users\NGUYEN~1\AppData\Local\Temp\ccVP94za.s 			page 23


 645              	.L49:
 646 0018 18003A40 		.word	1077542936
 647              		.cfi_endproc
 648              	.LFE10:
 649              		.size	adc_SetLowLimit, .-adc_SetLowLimit
 650              		.section	.text.adc_SetHighLimit,"ax",%progbits
 651              		.align	2
 652              		.global	adc_SetHighLimit
 653              		.code	16
 654              		.thumb_func
 655              		.type	adc_SetHighLimit, %function
 656              	adc_SetHighLimit:
 657              	.LFB11:
 599:Generated_Source\PSoC4/adc.c **** 
 600:Generated_Source\PSoC4/adc.c **** 
 601:Generated_Source\PSoC4/adc.c **** /*******************************************************************************
 602:Generated_Source\PSoC4/adc.c **** * Function Name: adc_SetHighLimit
 603:Generated_Source\PSoC4/adc.c **** ********************************************************************************
 604:Generated_Source\PSoC4/adc.c **** *
 605:Generated_Source\PSoC4/adc.c **** * Summary:
 606:Generated_Source\PSoC4/adc.c **** *  Sets the low limit parameter for a limit condition.
 607:Generated_Source\PSoC4/adc.c **** *
 608:Generated_Source\PSoC4/adc.c **** * Parameters:
 609:Generated_Source\PSoC4/adc.c **** *  highLimit: The high limit for a limit condition.
 610:Generated_Source\PSoC4/adc.c **** *
 611:Generated_Source\PSoC4/adc.c **** * Return:
 612:Generated_Source\PSoC4/adc.c **** *  None.
 613:Generated_Source\PSoC4/adc.c **** *
 614:Generated_Source\PSoC4/adc.c **** *******************************************************************************/
 615:Generated_Source\PSoC4/adc.c **** void adc_SetHighLimit(uint32 highLimit)
 616:Generated_Source\PSoC4/adc.c **** {
 658              		.loc 1 616 0
 659              		.cfi_startproc
 660              		@ args = 0, pretend = 0, frame = 0
 661              		@ frame_needed = 0, uses_anonymous_args = 0
 662              		@ link register save eliminated.
 663              	.LVL47:
 617:Generated_Source\PSoC4/adc.c ****     adc_SAR_RANGE_THRES_REG &= (uint32)(~adc_RANGE_HIGH_MASK);
 664              		.loc 1 617 0
 665 0000 044A     		ldr	r2, .L52
 666 0002 1368     		ldr	r3, [r2]
 667 0004 1B04     		lsls	r3, r3, #16
 668 0006 1B0C     		lsrs	r3, r3, #16
 669 0008 1360     		str	r3, [r2]
 618:Generated_Source\PSoC4/adc.c ****     adc_SAR_RANGE_THRES_REG |= (uint32)(highLimit << adc_RANGE_HIGH_OFFSET);
 670              		.loc 1 618 0
 671 000a 1368     		ldr	r3, [r2]
 672 000c 0004     		lsls	r0, r0, #16
 673              	.LVL48:
 674 000e 1843     		orrs	r0, r3
 675 0010 1060     		str	r0, [r2]
 619:Generated_Source\PSoC4/adc.c **** }
 676              		.loc 1 619 0
 677              		@ sp needed
 678 0012 7047     		bx	lr
 679              	.L53:
 680              		.align	2
ARM GAS  C:\Users\NGUYEN~1\AppData\Local\Temp\ccVP94za.s 			page 24


 681              	.L52:
 682 0014 18003A40 		.word	1077542936
 683              		.cfi_endproc
 684              	.LFE11:
 685              		.size	adc_SetHighLimit, .-adc_SetHighLimit
 686              		.section	.text.adc_SetLimitMask,"ax",%progbits
 687              		.align	2
 688              		.global	adc_SetLimitMask
 689              		.code	16
 690              		.thumb_func
 691              		.type	adc_SetLimitMask, %function
 692              	adc_SetLimitMask:
 693              	.LFB12:
 620:Generated_Source\PSoC4/adc.c **** 
 621:Generated_Source\PSoC4/adc.c **** 
 622:Generated_Source\PSoC4/adc.c **** /*******************************************************************************
 623:Generated_Source\PSoC4/adc.c **** * Function Name: adc_SetLimitMask
 624:Generated_Source\PSoC4/adc.c **** ********************************************************************************
 625:Generated_Source\PSoC4/adc.c **** *
 626:Generated_Source\PSoC4/adc.c **** * Summary:
 627:Generated_Source\PSoC4/adc.c **** *  Sets the channel limit condition mask.
 628:Generated_Source\PSoC4/adc.c **** *
 629:Generated_Source\PSoC4/adc.c **** * Parameters:
 630:Generated_Source\PSoC4/adc.c **** *  mask: Sets which channels that may cause a
 631:Generated_Source\PSoC4/adc.c **** *  limit condition interrupt. Setting bits for channels that do not exist
 632:Generated_Source\PSoC4/adc.c **** *  will have no effect. For example, if only 6 channels were enabled,
 633:Generated_Source\PSoC4/adc.c **** *  setting a mask of 0x0103 would only enable the last two channels (0 and 1).
 634:Generated_Source\PSoC4/adc.c **** *
 635:Generated_Source\PSoC4/adc.c **** * Return:
 636:Generated_Source\PSoC4/adc.c **** *  None.
 637:Generated_Source\PSoC4/adc.c **** *
 638:Generated_Source\PSoC4/adc.c **** *******************************************************************************/
 639:Generated_Source\PSoC4/adc.c **** void adc_SetLimitMask(uint32 mask)
 640:Generated_Source\PSoC4/adc.c **** {
 694              		.loc 1 640 0
 695              		.cfi_startproc
 696              		@ args = 0, pretend = 0, frame = 0
 697              		@ frame_needed = 0, uses_anonymous_args = 0
 698              		@ link register save eliminated.
 699              	.LVL49:
 641:Generated_Source\PSoC4/adc.c ****     adc_SAR_RANGE_INTR_MASK_REG = mask & adc_MAX_CHANNELS_EN_MASK;
 700              		.loc 1 641 0
 701 0000 3F23     		movs	r3, #63
 702 0002 1840     		ands	r0, r3
 703              	.LVL50:
 704 0004 014B     		ldr	r3, .L55
 705 0006 1860     		str	r0, [r3]
 642:Generated_Source\PSoC4/adc.c **** }
 706              		.loc 1 642 0
 707              		@ sp needed
 708 0008 7047     		bx	lr
 709              	.L56:
 710 000a C046     		.align	2
 711              	.L55:
 712 000c 38023A40 		.word	1077543480
 713              		.cfi_endproc
 714              	.LFE12:
ARM GAS  C:\Users\NGUYEN~1\AppData\Local\Temp\ccVP94za.s 			page 25


 715              		.size	adc_SetLimitMask, .-adc_SetLimitMask
 716              		.section	.text.adc_SetSatMask,"ax",%progbits
 717              		.align	2
 718              		.global	adc_SetSatMask
 719              		.code	16
 720              		.thumb_func
 721              		.type	adc_SetSatMask, %function
 722              	adc_SetSatMask:
 723              	.LFB13:
 643:Generated_Source\PSoC4/adc.c **** 
 644:Generated_Source\PSoC4/adc.c **** 
 645:Generated_Source\PSoC4/adc.c **** /*******************************************************************************
 646:Generated_Source\PSoC4/adc.c **** * Function Name: adc_SetSatMask
 647:Generated_Source\PSoC4/adc.c **** ********************************************************************************
 648:Generated_Source\PSoC4/adc.c **** *
 649:Generated_Source\PSoC4/adc.c **** * Summary:
 650:Generated_Source\PSoC4/adc.c **** *  Sets the channel saturation event mask.
 651:Generated_Source\PSoC4/adc.c **** *
 652:Generated_Source\PSoC4/adc.c **** * Parameters:
 653:Generated_Source\PSoC4/adc.c **** *  mask: Sets which channels that may cause a
 654:Generated_Source\PSoC4/adc.c **** *  saturation event interrupt. Setting bits for channels that do not exist
 655:Generated_Source\PSoC4/adc.c **** *  will have no effect. For example, if only 8 channels were enabled,
 656:Generated_Source\PSoC4/adc.c **** *  setting a mask of 0x01C0 would only enable two channels (6 and 7).
 657:Generated_Source\PSoC4/adc.c **** *
 658:Generated_Source\PSoC4/adc.c **** * Return:
 659:Generated_Source\PSoC4/adc.c **** *  None.
 660:Generated_Source\PSoC4/adc.c **** *
 661:Generated_Source\PSoC4/adc.c **** *******************************************************************************/
 662:Generated_Source\PSoC4/adc.c **** void adc_SetSatMask(uint32 mask)
 663:Generated_Source\PSoC4/adc.c **** {
 724              		.loc 1 663 0
 725              		.cfi_startproc
 726              		@ args = 0, pretend = 0, frame = 0
 727              		@ frame_needed = 0, uses_anonymous_args = 0
 728              		@ link register save eliminated.
 729              	.LVL51:
 664:Generated_Source\PSoC4/adc.c ****     adc_SAR_SATURATE_INTR_MASK_REG = mask & adc_MAX_CHANNELS_EN_MASK;
 730              		.loc 1 664 0
 731 0000 3F23     		movs	r3, #63
 732 0002 1840     		ands	r0, r3
 733              	.LVL52:
 734 0004 014B     		ldr	r3, .L58
 735 0006 1860     		str	r0, [r3]
 665:Generated_Source\PSoC4/adc.c **** }
 736              		.loc 1 665 0
 737              		@ sp needed
 738 0008 7047     		bx	lr
 739              	.L59:
 740 000a C046     		.align	2
 741              	.L58:
 742 000c 28023A40 		.word	1077543464
 743              		.cfi_endproc
 744              	.LFE13:
 745              		.size	adc_SetSatMask, .-adc_SetSatMask
 746              		.section	.text.adc_SetOffset,"ax",%progbits
 747              		.align	2
 748              		.global	adc_SetOffset
ARM GAS  C:\Users\NGUYEN~1\AppData\Local\Temp\ccVP94za.s 			page 26


 749              		.code	16
 750              		.thumb_func
 751              		.type	adc_SetOffset, %function
 752              	adc_SetOffset:
 753              	.LFB14:
 666:Generated_Source\PSoC4/adc.c **** 
 667:Generated_Source\PSoC4/adc.c **** 
 668:Generated_Source\PSoC4/adc.c **** /*******************************************************************************
 669:Generated_Source\PSoC4/adc.c **** * Function Name: adc_SetOffset
 670:Generated_Source\PSoC4/adc.c **** ********************************************************************************
 671:Generated_Source\PSoC4/adc.c **** *
 672:Generated_Source\PSoC4/adc.c **** * Summary:
 673:Generated_Source\PSoC4/adc.c **** *   Description: Sets the ADC offset which is used by the functions
 674:Generated_Source\PSoC4/adc.c **** *   ADC_CountsTo_uVolts, ADC_CountsTo_mVolts and ADC_CountsTo_Volts
 675:Generated_Source\PSoC4/adc.c **** *   to substract the offset from the given reading
 676:Generated_Source\PSoC4/adc.c **** *   before calculating the voltage conversion.
 677:Generated_Source\PSoC4/adc.c **** *
 678:Generated_Source\PSoC4/adc.c **** * Parameters:
 679:Generated_Source\PSoC4/adc.c **** *  chan: ADC channel number.
 680:Generated_Source\PSoC4/adc.c **** *  offset: This value is a measured value when the
 681:Generated_Source\PSoC4/adc.c **** *          inputs are shorted or connected to the same input voltage.
 682:Generated_Source\PSoC4/adc.c **** *
 683:Generated_Source\PSoC4/adc.c **** * Return:
 684:Generated_Source\PSoC4/adc.c **** *  None.
 685:Generated_Source\PSoC4/adc.c **** *
 686:Generated_Source\PSoC4/adc.c **** * Global variables:
 687:Generated_Source\PSoC4/adc.c **** *  adc_Offset:  Modified to set the user provided offset.
 688:Generated_Source\PSoC4/adc.c **** *
 689:Generated_Source\PSoC4/adc.c **** *******************************************************************************/
 690:Generated_Source\PSoC4/adc.c **** void adc_SetOffset(uint32 chan, int16 offset)
 691:Generated_Source\PSoC4/adc.c **** {
 754              		.loc 1 691 0
 755              		.cfi_startproc
 756              		@ args = 0, pretend = 0, frame = 0
 757              		@ frame_needed = 0, uses_anonymous_args = 0
 758              	.LVL53:
 759 0000 70B5     		push	{r4, r5, r6, lr}
 760              		.cfi_def_cfa_offset 16
 761              		.cfi_offset 4, -16
 762              		.cfi_offset 5, -12
 763              		.cfi_offset 6, -8
 764              		.cfi_offset 14, -4
 765 0002 0400     		movs	r4, r0
 766 0004 0D00     		movs	r5, r1
 692:Generated_Source\PSoC4/adc.c ****     /* Halt CPU in debug mode if channel is out of valid range */
 693:Generated_Source\PSoC4/adc.c ****     CYASSERT(chan < adc_TOTAL_CHANNELS_NUM);
 767              		.loc 1 693 0
 768 0006 0528     		cmp	r0, #5
 769 0008 02D9     		bls	.L61
 770              		.loc 1 693 0 is_stmt 0 discriminator 1
 771 000a 0020     		movs	r0, #0
 772              	.LVL54:
 773 000c FFF7FEFF 		bl	CyHalt
 774              	.LVL55:
 775              	.L61:
 694:Generated_Source\PSoC4/adc.c **** 
 695:Generated_Source\PSoC4/adc.c ****     adc_offset[chan] = offset;
ARM GAS  C:\Users\NGUYEN~1\AppData\Local\Temp\ccVP94za.s 			page 27


 776              		.loc 1 695 0 is_stmt 1
 777 0010 6400     		lsls	r4, r4, #1
 778              	.LVL56:
 779 0012 014B     		ldr	r3, .L62
 780 0014 E552     		strh	r5, [r4, r3]
 696:Generated_Source\PSoC4/adc.c **** }
 781              		.loc 1 696 0
 782              		@ sp needed
 783 0016 70BD     		pop	{r4, r5, r6, pc}
 784              	.L63:
 785              		.align	2
 786              	.L62:
 787 0018 00000000 		.word	adc_offset
 788              		.cfi_endproc
 789              	.LFE14:
 790              		.size	adc_SetOffset, .-adc_SetOffset
 791              		.section	.text.adc_SetGain,"ax",%progbits
 792              		.align	2
 793              		.global	adc_SetGain
 794              		.code	16
 795              		.thumb_func
 796              		.type	adc_SetGain, %function
 797              	adc_SetGain:
 798              	.LFB15:
 697:Generated_Source\PSoC4/adc.c **** 
 698:Generated_Source\PSoC4/adc.c **** 
 699:Generated_Source\PSoC4/adc.c **** /*******************************************************************************
 700:Generated_Source\PSoC4/adc.c **** * Function Name: adc_SetGain
 701:Generated_Source\PSoC4/adc.c **** ********************************************************************************
 702:Generated_Source\PSoC4/adc.c **** *
 703:Generated_Source\PSoC4/adc.c **** * Summary:
 704:Generated_Source\PSoC4/adc.c **** *  Description: Sets the ADC gain in counts per 10 volt for the voltage
 705:Generated_Source\PSoC4/adc.c **** *  conversion functions below. This value is set by default by the
 706:Generated_Source\PSoC4/adc.c **** *  reference and input range settings. It should only be used to further
 707:Generated_Source\PSoC4/adc.c **** *  calibrate the ADC with a known input or if an external reference is
 708:Generated_Source\PSoC4/adc.c **** *  used. Affects the ADC_CountsTo_uVolts, ADC_CountsTo_mVolts
 709:Generated_Source\PSoC4/adc.c **** *  and ADC_CountsTo_Volts functions by supplying the correct
 710:Generated_Source\PSoC4/adc.c **** *  conversion between ADC counts and voltage.
 711:Generated_Source\PSoC4/adc.c **** *
 712:Generated_Source\PSoC4/adc.c **** * Parameters:
 713:Generated_Source\PSoC4/adc.c **** *  chan: ADC channel number.
 714:Generated_Source\PSoC4/adc.c **** *  adcGain: ADC gain in counts per 10 volts.
 715:Generated_Source\PSoC4/adc.c **** *
 716:Generated_Source\PSoC4/adc.c **** * Return:
 717:Generated_Source\PSoC4/adc.c **** *  None.
 718:Generated_Source\PSoC4/adc.c **** *
 719:Generated_Source\PSoC4/adc.c **** * Global variables:
 720:Generated_Source\PSoC4/adc.c **** *  adc_CountsPer10Volt:  modified to set the ADC gain in counts
 721:Generated_Source\PSoC4/adc.c **** *   per 10 volt.
 722:Generated_Source\PSoC4/adc.c **** *
 723:Generated_Source\PSoC4/adc.c **** *******************************************************************************/
 724:Generated_Source\PSoC4/adc.c **** void adc_SetGain(uint32 chan, int32 adcGain)
 725:Generated_Source\PSoC4/adc.c **** {
 799              		.loc 1 725 0
 800              		.cfi_startproc
 801              		@ args = 0, pretend = 0, frame = 0
 802              		@ frame_needed = 0, uses_anonymous_args = 0
ARM GAS  C:\Users\NGUYEN~1\AppData\Local\Temp\ccVP94za.s 			page 28


 803              	.LVL57:
 804 0000 70B5     		push	{r4, r5, r6, lr}
 805              		.cfi_def_cfa_offset 16
 806              		.cfi_offset 4, -16
 807              		.cfi_offset 5, -12
 808              		.cfi_offset 6, -8
 809              		.cfi_offset 14, -4
 810 0002 0400     		movs	r4, r0
 811 0004 0D00     		movs	r5, r1
 726:Generated_Source\PSoC4/adc.c ****     /* Halt CPU in debug mode if channel is out of valid range */
 727:Generated_Source\PSoC4/adc.c ****     CYASSERT(chan < adc_TOTAL_CHANNELS_NUM);
 812              		.loc 1 727 0
 813 0006 0528     		cmp	r0, #5
 814 0008 02D9     		bls	.L65
 815              		.loc 1 727 0 is_stmt 0 discriminator 1
 816 000a 0020     		movs	r0, #0
 817              	.LVL58:
 818 000c FFF7FEFF 		bl	CyHalt
 819              	.LVL59:
 820              	.L65:
 728:Generated_Source\PSoC4/adc.c **** 
 729:Generated_Source\PSoC4/adc.c ****     adc_countsPer10Volt[chan] = adcGain;
 821              		.loc 1 729 0 is_stmt 1
 822 0010 A400     		lsls	r4, r4, #2
 823              	.LVL60:
 824 0012 014B     		ldr	r3, .L66
 825 0014 E550     		str	r5, [r4, r3]
 730:Generated_Source\PSoC4/adc.c **** }
 826              		.loc 1 730 0
 827              		@ sp needed
 828              	.LVL61:
 829 0016 70BD     		pop	{r4, r5, r6, pc}
 830              	.L67:
 831              		.align	2
 832              	.L66:
 833 0018 00000000 		.word	adc_countsPer10Volt
 834              		.cfi_endproc
 835              	.LFE15:
 836              		.size	adc_SetGain, .-adc_SetGain
 837              		.section	.text.adc_CountsTo_mVolts,"ax",%progbits
 838              		.align	2
 839              		.global	adc_CountsTo_mVolts
 840              		.code	16
 841              		.thumb_func
 842              		.type	adc_CountsTo_mVolts, %function
 843              	adc_CountsTo_mVolts:
 844              	.LFB16:
 731:Generated_Source\PSoC4/adc.c **** 
 732:Generated_Source\PSoC4/adc.c **** 
 733:Generated_Source\PSoC4/adc.c **** #if(adc_DEFAULT_JUSTIFICATION_SEL == adc__RIGHT)
 734:Generated_Source\PSoC4/adc.c **** 
 735:Generated_Source\PSoC4/adc.c **** 
 736:Generated_Source\PSoC4/adc.c ****     /*******************************************************************************
 737:Generated_Source\PSoC4/adc.c ****     * Function Name: adc_CountsTo_mVolts
 738:Generated_Source\PSoC4/adc.c ****     ********************************************************************************
 739:Generated_Source\PSoC4/adc.c ****     *
 740:Generated_Source\PSoC4/adc.c ****     * Summary:
ARM GAS  C:\Users\NGUYEN~1\AppData\Local\Temp\ccVP94za.s 			page 29


 741:Generated_Source\PSoC4/adc.c ****     *  This function converts ADC counts to mVolts
 742:Generated_Source\PSoC4/adc.c ****     *  This function is not available when left data format justification selected.
 743:Generated_Source\PSoC4/adc.c ****     *
 744:Generated_Source\PSoC4/adc.c ****     * Parameters:
 745:Generated_Source\PSoC4/adc.c ****     *  chan: The ADC channel number.
 746:Generated_Source\PSoC4/adc.c ****     *  adcCounts: Result from the ADC conversion
 747:Generated_Source\PSoC4/adc.c ****     *
 748:Generated_Source\PSoC4/adc.c ****     * Return:
 749:Generated_Source\PSoC4/adc.c ****     *  Results in mVolts
 750:Generated_Source\PSoC4/adc.c ****     *
 751:Generated_Source\PSoC4/adc.c ****     * Global variables:
 752:Generated_Source\PSoC4/adc.c ****     *  adc_countsPer10Volt:  used to convert ADC counts to mVolts.
 753:Generated_Source\PSoC4/adc.c ****     *  adc_Offset:  Used as the offset while converting ADC counts
 754:Generated_Source\PSoC4/adc.c ****     *   to mVolts.
 755:Generated_Source\PSoC4/adc.c ****     *
 756:Generated_Source\PSoC4/adc.c ****     *******************************************************************************/
 757:Generated_Source\PSoC4/adc.c ****     int16 adc_CountsTo_mVolts(uint32 chan, int16 adcCounts)
 758:Generated_Source\PSoC4/adc.c ****     {
 845              		.loc 1 758 0
 846              		.cfi_startproc
 847              		@ args = 0, pretend = 0, frame = 0
 848              		@ frame_needed = 0, uses_anonymous_args = 0
 849              	.LVL62:
 850 0000 70B5     		push	{r4, r5, r6, lr}
 851              		.cfi_def_cfa_offset 16
 852              		.cfi_offset 4, -16
 853              		.cfi_offset 5, -12
 854              		.cfi_offset 6, -8
 855              		.cfi_offset 14, -4
 856 0002 0400     		movs	r4, r0
 857 0004 0D00     		movs	r5, r1
 759:Generated_Source\PSoC4/adc.c ****         int16 mVolts;
 760:Generated_Source\PSoC4/adc.c **** 
 761:Generated_Source\PSoC4/adc.c ****         /* Halt CPU in debug mode if channel is out of valid range */
 762:Generated_Source\PSoC4/adc.c ****         CYASSERT(chan < adc_TOTAL_CHANNELS_NUM);
 858              		.loc 1 762 0
 859 0006 0528     		cmp	r0, #5
 860 0008 02D9     		bls	.L69
 861              		.loc 1 762 0 is_stmt 0 discriminator 1
 862 000a 0020     		movs	r0, #0
 863              	.LVL63:
 864 000c FFF7FEFF 		bl	CyHalt
 865              	.LVL64:
 866              	.L69:
 763:Generated_Source\PSoC4/adc.c **** 
 764:Generated_Source\PSoC4/adc.c ****         /* Divide the adcCount when accumulate averaging mode selected */
 765:Generated_Source\PSoC4/adc.c ****         #if(adc_DEFAULT_AVG_MODE == adc__ACCUMULATE)
 766:Generated_Source\PSoC4/adc.c ****             if((adc_channelsConfig[chan] & adc_AVERAGING_EN) != 0u)
 767:Generated_Source\PSoC4/adc.c ****             {
 768:Generated_Source\PSoC4/adc.c ****                 adcCounts /= adc_DEFAULT_AVG_SAMPLES_DIV;
 769:Generated_Source\PSoC4/adc.c ****             }
 770:Generated_Source\PSoC4/adc.c ****         #endif /* adc_DEFAULT_AVG_MODE == adc__ACCUMULATE */
 771:Generated_Source\PSoC4/adc.c **** 
 772:Generated_Source\PSoC4/adc.c ****         /* Subtract ADC offset */
 773:Generated_Source\PSoC4/adc.c ****         adcCounts -= adc_offset[chan];
 867              		.loc 1 773 0 is_stmt 1
 868 0010 6300     		lsls	r3, r4, #1
ARM GAS  C:\Users\NGUYEN~1\AppData\Local\Temp\ccVP94za.s 			page 30


 869 0012 0F4A     		ldr	r2, .L72
 870 0014 995A     		ldrh	r1, [r3, r2]
 871 0016 09B2     		sxth	r1, r1
 872 0018 691A     		subs	r1, r5, r1
 873 001a 09B2     		sxth	r1, r1
 874              	.LVL65:
 774:Generated_Source\PSoC4/adc.c **** 
 775:Generated_Source\PSoC4/adc.c ****         mVolts = (int16)((((int32)adcCounts * adc_10MV_COUNTS) + ( (adcCounts > 0) ?
 875              		.loc 1 775 0
 876 001c 0D48     		ldr	r0, .L72+4
 877 001e 4843     		muls	r0, r1
 776:Generated_Source\PSoC4/adc.c ****                  (adc_countsPer10Volt[chan] / 2) : (-(adc_countsPer10Volt[chan] / 2)) ))
 878              		.loc 1 776 0
 879 0020 0029     		cmp	r1, #0
 880 0022 06DD     		ble	.L70
 881              		.loc 1 776 0 is_stmt 0 discriminator 1
 882 0024 A300     		lsls	r3, r4, #2
 883 0026 0C4A     		ldr	r2, .L72+8
 884 0028 9A58     		ldr	r2, [r3, r2]
 885 002a D30F     		lsrs	r3, r2, #31
 886 002c 9A18     		adds	r2, r3, r2
 887 002e 5310     		asrs	r3, r2, #1
 888 0030 06E0     		b	.L71
 889              	.L70:
 890              		.loc 1 776 0 discriminator 2
 891 0032 A300     		lsls	r3, r4, #2
 892 0034 084A     		ldr	r2, .L72+8
 893 0036 9A58     		ldr	r2, [r3, r2]
 894 0038 D30F     		lsrs	r3, r2, #31
 895 003a 9A18     		adds	r2, r3, r2
 896 003c 5210     		asrs	r2, r2, #1
 897 003e 5342     		rsbs	r3, r2, #0
 898              	.L71:
 775:Generated_Source\PSoC4/adc.c ****                  (adc_countsPer10Volt[chan] / 2) : (-(adc_countsPer10Volt[chan] / 2)) ))
 899              		.loc 1 775 0 is_stmt 1
 900 0040 1818     		adds	r0, r3, r0
 777:Generated_Source\PSoC4/adc.c ****                  / adc_countsPer10Volt[chan]);
 901              		.loc 1 777 0
 902 0042 A400     		lsls	r4, r4, #2
 903              	.LVL66:
 904 0044 044B     		ldr	r3, .L72+8
 905 0046 E158     		ldr	r1, [r4, r3]
 906              	.LVL67:
 907 0048 FFF7FEFF 		bl	__aeabi_idiv
 908              	.LVL68:
 775:Generated_Source\PSoC4/adc.c ****                  (adc_countsPer10Volt[chan] / 2) : (-(adc_countsPer10Volt[chan] / 2)) ))
 909              		.loc 1 775 0
 910 004c 00B2     		sxth	r0, r0
 911              	.LVL69:
 778:Generated_Source\PSoC4/adc.c **** 
 779:Generated_Source\PSoC4/adc.c ****         return( mVolts );
 780:Generated_Source\PSoC4/adc.c ****     }
 912              		.loc 1 780 0
 913              		@ sp needed
 914 004e 70BD     		pop	{r4, r5, r6, pc}
 915              	.L73:
 916              		.align	2
ARM GAS  C:\Users\NGUYEN~1\AppData\Local\Temp\ccVP94za.s 			page 31


 917              	.L72:
 918 0050 00000000 		.word	adc_offset
 919 0054 10270000 		.word	10000
 920 0058 00000000 		.word	adc_countsPer10Volt
 921              		.cfi_endproc
 922              	.LFE16:
 923              		.size	adc_CountsTo_mVolts, .-adc_CountsTo_mVolts
 924              		.global	__aeabi_lmul
 925              		.global	__aeabi_ldivmod
 926              		.section	.text.adc_CountsTo_uVolts,"ax",%progbits
 927              		.align	2
 928              		.global	adc_CountsTo_uVolts
 929              		.code	16
 930              		.thumb_func
 931              		.type	adc_CountsTo_uVolts, %function
 932              	adc_CountsTo_uVolts:
 933              	.LFB17:
 781:Generated_Source\PSoC4/adc.c **** 
 782:Generated_Source\PSoC4/adc.c **** 
 783:Generated_Source\PSoC4/adc.c ****     /*******************************************************************************
 784:Generated_Source\PSoC4/adc.c ****     * Function Name: adc_CountsTo_uVolts
 785:Generated_Source\PSoC4/adc.c ****     ********************************************************************************
 786:Generated_Source\PSoC4/adc.c ****     *
 787:Generated_Source\PSoC4/adc.c ****     * Summary:
 788:Generated_Source\PSoC4/adc.c ****     *  This function converts ADC counts to micro Volts
 789:Generated_Source\PSoC4/adc.c ****     *  This function is not available when left data format justification selected.
 790:Generated_Source\PSoC4/adc.c ****     *
 791:Generated_Source\PSoC4/adc.c ****     * Parameters:
 792:Generated_Source\PSoC4/adc.c ****     *  chan: The ADC channel number.
 793:Generated_Source\PSoC4/adc.c ****     *  adcCounts: Result from the ADC conversion
 794:Generated_Source\PSoC4/adc.c ****     *
 795:Generated_Source\PSoC4/adc.c ****     * Return:
 796:Generated_Source\PSoC4/adc.c ****     *  Results in uVolts
 797:Generated_Source\PSoC4/adc.c ****     *
 798:Generated_Source\PSoC4/adc.c ****     * Global variables:
 799:Generated_Source\PSoC4/adc.c ****     *  adc_countsPer10Volt:  used to convert ADC counts to uVolts.
 800:Generated_Source\PSoC4/adc.c ****     *  adc_Offset:  Used as the offset while converting ADC counts
 801:Generated_Source\PSoC4/adc.c ****     *   to mVolts.
 802:Generated_Source\PSoC4/adc.c ****     *
 803:Generated_Source\PSoC4/adc.c ****     * Theory:
 804:Generated_Source\PSoC4/adc.c ****     *  Care must be taken to not exceed the maximum value for a 31 bit signed
 805:Generated_Source\PSoC4/adc.c ****     *  number in the conversion to uVolts and at the same time not loose
 806:Generated_Source\PSoC4/adc.c ****     *  resolution.
 807:Generated_Source\PSoC4/adc.c ****     *  To convert adcCounts to microVolts it is required to be multiplied
 808:Generated_Source\PSoC4/adc.c ****     *  on 10 million and later divide on gain in counts per 10V.
 809:Generated_Source\PSoC4/adc.c ****     *
 810:Generated_Source\PSoC4/adc.c ****     *******************************************************************************/
 811:Generated_Source\PSoC4/adc.c ****     int32 adc_CountsTo_uVolts(uint32 chan, int16 adcCounts)
 812:Generated_Source\PSoC4/adc.c ****     {
 934              		.loc 1 812 0
 935              		.cfi_startproc
 936              		@ args = 0, pretend = 0, frame = 0
 937              		@ frame_needed = 0, uses_anonymous_args = 0
 938              	.LVL70:
 939 0000 70B5     		push	{r4, r5, r6, lr}
 940              		.cfi_def_cfa_offset 16
 941              		.cfi_offset 4, -16
ARM GAS  C:\Users\NGUYEN~1\AppData\Local\Temp\ccVP94za.s 			page 32


 942              		.cfi_offset 5, -12
 943              		.cfi_offset 6, -8
 944              		.cfi_offset 14, -4
 945 0002 0500     		movs	r5, r0
 946 0004 0C00     		movs	r4, r1
 813:Generated_Source\PSoC4/adc.c ****         int64 uVolts;
 814:Generated_Source\PSoC4/adc.c **** 
 815:Generated_Source\PSoC4/adc.c ****         /* Halt CPU in debug mode if channel is out of valid range */
 816:Generated_Source\PSoC4/adc.c ****         CYASSERT(chan < adc_TOTAL_CHANNELS_NUM);
 947              		.loc 1 816 0
 948 0006 0528     		cmp	r0, #5
 949 0008 02D9     		bls	.L75
 950              		.loc 1 816 0 is_stmt 0 discriminator 1
 951 000a 0020     		movs	r0, #0
 952              	.LVL71:
 953 000c FFF7FEFF 		bl	CyHalt
 954              	.LVL72:
 955              	.L75:
 817:Generated_Source\PSoC4/adc.c **** 
 818:Generated_Source\PSoC4/adc.c ****         /* Divide the adcCount when accumulate averaging mode selected */
 819:Generated_Source\PSoC4/adc.c ****         #if(adc_DEFAULT_AVG_MODE == adc__ACCUMULATE)
 820:Generated_Source\PSoC4/adc.c ****             if((adc_channelsConfig[chan] & adc_AVERAGING_EN) != 0u)
 821:Generated_Source\PSoC4/adc.c ****             {
 822:Generated_Source\PSoC4/adc.c ****                 adcCounts /= adc_DEFAULT_AVG_SAMPLES_DIV;
 823:Generated_Source\PSoC4/adc.c ****             }
 824:Generated_Source\PSoC4/adc.c ****         #endif /* adc_DEFAULT_AVG_MODE == adc__ACCUMULATE */
 825:Generated_Source\PSoC4/adc.c **** 
 826:Generated_Source\PSoC4/adc.c ****         /* Subtract ADC offset */
 827:Generated_Source\PSoC4/adc.c ****         adcCounts -= adc_offset[chan];
 956              		.loc 1 827 0 is_stmt 1
 957 0010 6A00     		lsls	r2, r5, #1
 958 0012 084B     		ldr	r3, .L76
 959 0014 D05A     		ldrh	r0, [r2, r3]
 960 0016 00B2     		sxth	r0, r0
 961 0018 201A     		subs	r0, r4, r0
 962 001a 00B2     		sxth	r0, r0
 963              	.LVL73:
 828:Generated_Source\PSoC4/adc.c **** 
 829:Generated_Source\PSoC4/adc.c ****         uVolts = ((int64)adcCounts * adc_10UV_COUNTS) / adc_countsPer10Volt[chan];
 964              		.loc 1 829 0
 965 001c C117     		asrs	r1, r0, #31
 966 001e 064A     		ldr	r2, .L76+4
 967 0020 0023     		movs	r3, #0
 968 0022 FFF7FEFF 		bl	__aeabi_lmul
 969              	.LVL74:
 970 0026 AD00     		lsls	r5, r5, #2
 971              	.LVL75:
 972 0028 044B     		ldr	r3, .L76+8
 973 002a EA58     		ldr	r2, [r5, r3]
 974 002c D317     		asrs	r3, r2, #31
 975 002e FFF7FEFF 		bl	__aeabi_ldivmod
 976              	.LVL76:
 830:Generated_Source\PSoC4/adc.c **** 
 831:Generated_Source\PSoC4/adc.c ****         return( (int32)uVolts );
 832:Generated_Source\PSoC4/adc.c ****     }
 977              		.loc 1 832 0
 978              		@ sp needed
ARM GAS  C:\Users\NGUYEN~1\AppData\Local\Temp\ccVP94za.s 			page 33


 979 0032 70BD     		pop	{r4, r5, r6, pc}
 980              	.L77:
 981              		.align	2
 982              	.L76:
 983 0034 00000000 		.word	adc_offset
 984 0038 80969800 		.word	10000000
 985 003c 00000000 		.word	adc_countsPer10Volt
 986              		.cfi_endproc
 987              	.LFE17:
 988              		.size	adc_CountsTo_uVolts, .-adc_CountsTo_uVolts
 989              		.global	__aeabi_i2f
 990              		.global	__aeabi_fmul
 991              		.global	__aeabi_fdiv
 992              		.section	.text.adc_CountsTo_Volts,"ax",%progbits
 993              		.align	2
 994              		.global	adc_CountsTo_Volts
 995              		.code	16
 996              		.thumb_func
 997              		.type	adc_CountsTo_Volts, %function
 998              	adc_CountsTo_Volts:
 999              	.LFB18:
 833:Generated_Source\PSoC4/adc.c **** 
 834:Generated_Source\PSoC4/adc.c **** 
 835:Generated_Source\PSoC4/adc.c ****     /*******************************************************************************
 836:Generated_Source\PSoC4/adc.c ****     * Function Name: adc_CountsTo_Volts
 837:Generated_Source\PSoC4/adc.c ****     ********************************************************************************
 838:Generated_Source\PSoC4/adc.c ****     *
 839:Generated_Source\PSoC4/adc.c ****     * Summary:
 840:Generated_Source\PSoC4/adc.c ****     *  Converts the ADC output to Volts as a floating point number.
 841:Generated_Source\PSoC4/adc.c ****     *  This function is not available when left data format justification selected.
 842:Generated_Source\PSoC4/adc.c ****     *
 843:Generated_Source\PSoC4/adc.c ****     * Parameters:
 844:Generated_Source\PSoC4/adc.c ****     *  chan: The ADC channel number.
 845:Generated_Source\PSoC4/adc.c ****     *  Result from the ADC conversion
 846:Generated_Source\PSoC4/adc.c ****     *
 847:Generated_Source\PSoC4/adc.c ****     * Return:
 848:Generated_Source\PSoC4/adc.c ****     *  Results in Volts
 849:Generated_Source\PSoC4/adc.c ****     *
 850:Generated_Source\PSoC4/adc.c ****     * Global variables:
 851:Generated_Source\PSoC4/adc.c ****     *  adc_countsPer10Volt:  used to convert ADC counts to Volts.
 852:Generated_Source\PSoC4/adc.c ****     *  adc_Offset:  Used as the offset while converting ADC counts
 853:Generated_Source\PSoC4/adc.c ****     *   to mVolts.
 854:Generated_Source\PSoC4/adc.c ****     *
 855:Generated_Source\PSoC4/adc.c ****     *******************************************************************************/
 856:Generated_Source\PSoC4/adc.c ****     float32 adc_CountsTo_Volts(uint32 chan, int16 adcCounts)
 857:Generated_Source\PSoC4/adc.c ****     {
 1000              		.loc 1 857 0
 1001              		.cfi_startproc
 1002              		@ args = 0, pretend = 0, frame = 0
 1003              		@ frame_needed = 0, uses_anonymous_args = 0
 1004              	.LVL77:
 1005 0000 70B5     		push	{r4, r5, r6, lr}
 1006              		.cfi_def_cfa_offset 16
 1007              		.cfi_offset 4, -16
 1008              		.cfi_offset 5, -12
 1009              		.cfi_offset 6, -8
 1010              		.cfi_offset 14, -4
ARM GAS  C:\Users\NGUYEN~1\AppData\Local\Temp\ccVP94za.s 			page 34


 1011 0002 0400     		movs	r4, r0
 1012 0004 0D00     		movs	r5, r1
 858:Generated_Source\PSoC4/adc.c ****         float32 volts;
 859:Generated_Source\PSoC4/adc.c **** 
 860:Generated_Source\PSoC4/adc.c ****         /* Halt CPU in debug mode if channel is out of valid range */
 861:Generated_Source\PSoC4/adc.c ****         CYASSERT(chan < adc_TOTAL_CHANNELS_NUM);
 1013              		.loc 1 861 0
 1014 0006 0528     		cmp	r0, #5
 1015 0008 02D9     		bls	.L79
 1016              		.loc 1 861 0 is_stmt 0 discriminator 1
 1017 000a 0020     		movs	r0, #0
 1018              	.LVL78:
 1019 000c FFF7FEFF 		bl	CyHalt
 1020              	.LVL79:
 1021              	.L79:
 862:Generated_Source\PSoC4/adc.c **** 
 863:Generated_Source\PSoC4/adc.c ****         /* Divide the adcCount when accumulate averaging mode selected */
 864:Generated_Source\PSoC4/adc.c ****         #if(adc_DEFAULT_AVG_MODE == adc__ACCUMULATE)
 865:Generated_Source\PSoC4/adc.c ****             if((adc_channelsConfig[chan] & adc_AVERAGING_EN) != 0u)
 866:Generated_Source\PSoC4/adc.c ****             {
 867:Generated_Source\PSoC4/adc.c ****                 adcCounts /= adc_DEFAULT_AVG_SAMPLES_DIV;
 868:Generated_Source\PSoC4/adc.c ****             }
 869:Generated_Source\PSoC4/adc.c ****         #endif /* adc_DEFAULT_AVG_MODE == adc__ACCUMULATE */
 870:Generated_Source\PSoC4/adc.c **** 
 871:Generated_Source\PSoC4/adc.c ****         /* Subtract ADC offset */
 872:Generated_Source\PSoC4/adc.c ****         adcCounts -= adc_offset[chan];
 1022              		.loc 1 872 0 is_stmt 1
 1023 0010 6200     		lsls	r2, r4, #1
 1024 0012 0A4B     		ldr	r3, .L80
 1025 0014 D05A     		ldrh	r0, [r2, r3]
 1026 0016 00B2     		sxth	r0, r0
 1027 0018 281A     		subs	r0, r5, r0
 1028 001a 00B2     		sxth	r0, r0
 1029              	.LVL80:
 873:Generated_Source\PSoC4/adc.c **** 
 874:Generated_Source\PSoC4/adc.c ****         volts = ((float32)adcCounts * adc_10V_COUNTS) / (float32)adc_countsPer10Volt[chan];
 1030              		.loc 1 874 0
 1031 001c FFF7FEFF 		bl	__aeabi_i2f
 1032              	.LVL81:
 1033 0020 0749     		ldr	r1, .L80+4
 1034 0022 FFF7FEFF 		bl	__aeabi_fmul
 1035              	.LVL82:
 1036 0026 051C     		adds	r5, r0, #0
 1037 0028 A400     		lsls	r4, r4, #2
 1038              	.LVL83:
 1039 002a 064B     		ldr	r3, .L80+8
 1040 002c E058     		ldr	r0, [r4, r3]
 1041 002e FFF7FEFF 		bl	__aeabi_i2f
 1042              	.LVL84:
 1043 0032 011C     		adds	r1, r0, #0
 1044 0034 281C     		adds	r0, r5, #0
 1045 0036 FFF7FEFF 		bl	__aeabi_fdiv
 1046              	.LVL85:
 875:Generated_Source\PSoC4/adc.c **** 
 876:Generated_Source\PSoC4/adc.c ****         return( volts );
 877:Generated_Source\PSoC4/adc.c ****     }
 1047              		.loc 1 877 0
ARM GAS  C:\Users\NGUYEN~1\AppData\Local\Temp\ccVP94za.s 			page 35


 1048              		@ sp needed
 1049 003a 70BD     		pop	{r4, r5, r6, pc}
 1050              	.L81:
 1051              		.align	2
 1052              	.L80:
 1053 003c 00000000 		.word	adc_offset
 1054 0040 00002041 		.word	1092616192
 1055 0044 00000000 		.word	adc_countsPer10Volt
 1056              		.cfi_endproc
 1057              	.LFE18:
 1058              		.size	adc_CountsTo_Volts, .-adc_CountsTo_Volts
 1059              		.comm	adc_countsPer10Volt,24,4
 1060              		.comm	adc_offset,12,4
 1061              		.global	adc_initVar
 1062              		.section	.rodata
 1063              		.align	2
 1064              		.set	.LANCHOR0,. + 0
 1065              		.type	adc_channelsConfig, %object
 1066              		.size	adc_channelsConfig, 24
 1067              	adc_channelsConfig:
 1068 0000 00020000 		.word	512
 1069 0004 00020000 		.word	512
 1070 0008 00020000 		.word	512
 1071 000c 00020000 		.word	512
 1072 0010 00020000 		.word	512
 1073 0014 00020000 		.word	512
 1074              		.type	adc_InputsPlacement.4915, %object
 1075              		.size	adc_InputsPlacement.4915, 6
 1076              	adc_InputsPlacement.4915:
 1077 0018 00       		.byte	0
 1078 0019 01       		.byte	1
 1079 001a 02       		.byte	2
 1080 001b 03       		.byte	3
 1081 001c 04       		.byte	4
 1082 001d 06       		.byte	6
 1083              		.bss
 1084              		.set	.LANCHOR1,. + 0
 1085              		.type	adc_initVar, %object
 1086              		.size	adc_initVar, 1
 1087              	adc_initVar:
 1088 0000 00       		.space	1
 1089              		.text
 1090              	.Letext0:
 1091              		.file 2 "Generated_Source\\PSoC4\\cytypes.h"
 1092              		.file 3 "Generated_Source\\PSoC4\\CyLib.h"